
kernel/kernel:     file format elf64-littleriscv


Disassembly of section .text:

0000000080000000 <_entry>:
    80000000:	00009117          	auipc	sp,0x9
    80000004:	94013103          	ld	sp,-1728(sp) # 80008940 <_GLOBAL_OFFSET_TABLE_+0x8>
    80000008:	6505                	lui	a0,0x1
    8000000a:	f14025f3          	csrr	a1,mhartid
    8000000e:	0585                	addi	a1,a1,1
    80000010:	02b50533          	mul	a0,a0,a1
    80000014:	912a                	add	sp,sp,a0
    80000016:	1f7050ef          	jal	ra,80005a0c <start>

000000008000001a <spin>:
    8000001a:	a001                	j	8000001a <spin>

000000008000001c <kfree>:
// which normally should have been returned by a
// call to kalloc().  (The exception is when
// initializing the allocator; see kinit above.)
void
kfree(void *pa)
{
    8000001c:	1101                	addi	sp,sp,-32
    8000001e:	ec06                	sd	ra,24(sp)
    80000020:	e822                	sd	s0,16(sp)
    80000022:	e426                	sd	s1,8(sp)
    80000024:	e04a                	sd	s2,0(sp)
    80000026:	1000                	addi	s0,sp,32
  struct run *r;

  if(((uint64)pa % PGSIZE) != 0 || (char*)pa < end || (uint64)pa >= PHYSTOP)
    80000028:	03451793          	slli	a5,a0,0x34
    8000002c:	ebb9                	bnez	a5,80000082 <kfree+0x66>
    8000002e:	84aa                	mv	s1,a0
    80000030:	00022797          	auipc	a5,0x22
    80000034:	fe078793          	addi	a5,a5,-32 # 80022010 <end>
    80000038:	04f56563          	bltu	a0,a5,80000082 <kfree+0x66>
    8000003c:	47c5                	li	a5,17
    8000003e:	07ee                	slli	a5,a5,0x1b
    80000040:	04f57163          	bgeu	a0,a5,80000082 <kfree+0x66>
    panic("kfree");

  // Fill with junk to catch dangling refs.
  memset(pa, 1, PGSIZE);
    80000044:	6605                	lui	a2,0x1
    80000046:	4585                	li	a1,1
    80000048:	00000097          	auipc	ra,0x0
    8000004c:	130080e7          	jalr	304(ra) # 80000178 <memset>

  r = (struct run*)pa;

  acquire(&kmem.lock);
    80000050:	00009917          	auipc	s2,0x9
    80000054:	95090913          	addi	s2,s2,-1712 # 800089a0 <kmem>
    80000058:	854a                	mv	a0,s2
    8000005a:	00006097          	auipc	ra,0x6
    8000005e:	3b2080e7          	jalr	946(ra) # 8000640c <acquire>
  r->next = kmem.freelist;
    80000062:	01893783          	ld	a5,24(s2)
    80000066:	e09c                	sd	a5,0(s1)
  kmem.freelist = r;
    80000068:	00993c23          	sd	s1,24(s2)
  release(&kmem.lock);
    8000006c:	854a                	mv	a0,s2
    8000006e:	00006097          	auipc	ra,0x6
    80000072:	452080e7          	jalr	1106(ra) # 800064c0 <release>
}
    80000076:	60e2                	ld	ra,24(sp)
    80000078:	6442                	ld	s0,16(sp)
    8000007a:	64a2                	ld	s1,8(sp)
    8000007c:	6902                	ld	s2,0(sp)
    8000007e:	6105                	addi	sp,sp,32
    80000080:	8082                	ret
    panic("kfree");
    80000082:	00008517          	auipc	a0,0x8
    80000086:	f8e50513          	addi	a0,a0,-114 # 80008010 <etext+0x10>
    8000008a:	00006097          	auipc	ra,0x6
    8000008e:	e38080e7          	jalr	-456(ra) # 80005ec2 <panic>

0000000080000092 <freerange>:
{
    80000092:	7179                	addi	sp,sp,-48
    80000094:	f406                	sd	ra,40(sp)
    80000096:	f022                	sd	s0,32(sp)
    80000098:	ec26                	sd	s1,24(sp)
    8000009a:	e84a                	sd	s2,16(sp)
    8000009c:	e44e                	sd	s3,8(sp)
    8000009e:	e052                	sd	s4,0(sp)
    800000a0:	1800                	addi	s0,sp,48
  p = (char*)PGROUNDUP((uint64)pa_start);
    800000a2:	6785                	lui	a5,0x1
    800000a4:	fff78493          	addi	s1,a5,-1 # fff <_entry-0x7ffff001>
    800000a8:	94aa                	add	s1,s1,a0
    800000aa:	757d                	lui	a0,0xfffff
    800000ac:	8ce9                	and	s1,s1,a0
  for(; p + PGSIZE <= (char*)pa_end; p += PGSIZE)
    800000ae:	94be                	add	s1,s1,a5
    800000b0:	0095ee63          	bltu	a1,s1,800000cc <freerange+0x3a>
    800000b4:	892e                	mv	s2,a1
    kfree(p);
    800000b6:	7a7d                	lui	s4,0xfffff
  for(; p + PGSIZE <= (char*)pa_end; p += PGSIZE)
    800000b8:	6985                	lui	s3,0x1
    kfree(p);
    800000ba:	01448533          	add	a0,s1,s4
    800000be:	00000097          	auipc	ra,0x0
    800000c2:	f5e080e7          	jalr	-162(ra) # 8000001c <kfree>
  for(; p + PGSIZE <= (char*)pa_end; p += PGSIZE)
    800000c6:	94ce                	add	s1,s1,s3
    800000c8:	fe9979e3          	bgeu	s2,s1,800000ba <freerange+0x28>
}
    800000cc:	70a2                	ld	ra,40(sp)
    800000ce:	7402                	ld	s0,32(sp)
    800000d0:	64e2                	ld	s1,24(sp)
    800000d2:	6942                	ld	s2,16(sp)
    800000d4:	69a2                	ld	s3,8(sp)
    800000d6:	6a02                	ld	s4,0(sp)
    800000d8:	6145                	addi	sp,sp,48
    800000da:	8082                	ret

00000000800000dc <kinit>:
{
    800000dc:	1141                	addi	sp,sp,-16
    800000de:	e406                	sd	ra,8(sp)
    800000e0:	e022                	sd	s0,0(sp)
    800000e2:	0800                	addi	s0,sp,16
  initlock(&kmem.lock, "kmem");
    800000e4:	00008597          	auipc	a1,0x8
    800000e8:	f3458593          	addi	a1,a1,-204 # 80008018 <etext+0x18>
    800000ec:	00009517          	auipc	a0,0x9
    800000f0:	8b450513          	addi	a0,a0,-1868 # 800089a0 <kmem>
    800000f4:	00006097          	auipc	ra,0x6
    800000f8:	288080e7          	jalr	648(ra) # 8000637c <initlock>
  freerange(end, (void*)PHYSTOP);
    800000fc:	45c5                	li	a1,17
    800000fe:	05ee                	slli	a1,a1,0x1b
    80000100:	00022517          	auipc	a0,0x22
    80000104:	f1050513          	addi	a0,a0,-240 # 80022010 <end>
    80000108:	00000097          	auipc	ra,0x0
    8000010c:	f8a080e7          	jalr	-118(ra) # 80000092 <freerange>
}
    80000110:	60a2                	ld	ra,8(sp)
    80000112:	6402                	ld	s0,0(sp)
    80000114:	0141                	addi	sp,sp,16
    80000116:	8082                	ret

0000000080000118 <kalloc>:
// Allocate one 4096-byte page of physical memory.
// Returns a pointer that the kernel can use.
// Returns 0 if the memory cannot be allocated.
void *
kalloc(void)
{
    80000118:	1101                	addi	sp,sp,-32
    8000011a:	ec06                	sd	ra,24(sp)
    8000011c:	e822                	sd	s0,16(sp)
    8000011e:	e426                	sd	s1,8(sp)
    80000120:	1000                	addi	s0,sp,32
  struct run *r;

  acquire(&kmem.lock);
    80000122:	00009497          	auipc	s1,0x9
    80000126:	87e48493          	addi	s1,s1,-1922 # 800089a0 <kmem>
    8000012a:	8526                	mv	a0,s1
    8000012c:	00006097          	auipc	ra,0x6
    80000130:	2e0080e7          	jalr	736(ra) # 8000640c <acquire>
  r = kmem.freelist;
    80000134:	6c84                	ld	s1,24(s1)
  if(r)
    80000136:	c885                	beqz	s1,80000166 <kalloc+0x4e>
    kmem.freelist = r->next;
    80000138:	609c                	ld	a5,0(s1)
    8000013a:	00009517          	auipc	a0,0x9
    8000013e:	86650513          	addi	a0,a0,-1946 # 800089a0 <kmem>
    80000142:	ed1c                	sd	a5,24(a0)
  release(&kmem.lock);
    80000144:	00006097          	auipc	ra,0x6
    80000148:	37c080e7          	jalr	892(ra) # 800064c0 <release>

  if(r)
    memset((char*)r, 5, PGSIZE); // fill with junk
    8000014c:	6605                	lui	a2,0x1
    8000014e:	4595                	li	a1,5
    80000150:	8526                	mv	a0,s1
    80000152:	00000097          	auipc	ra,0x0
    80000156:	026080e7          	jalr	38(ra) # 80000178 <memset>
  return (void*)r;
}
    8000015a:	8526                	mv	a0,s1
    8000015c:	60e2                	ld	ra,24(sp)
    8000015e:	6442                	ld	s0,16(sp)
    80000160:	64a2                	ld	s1,8(sp)
    80000162:	6105                	addi	sp,sp,32
    80000164:	8082                	ret
  release(&kmem.lock);
    80000166:	00009517          	auipc	a0,0x9
    8000016a:	83a50513          	addi	a0,a0,-1990 # 800089a0 <kmem>
    8000016e:	00006097          	auipc	ra,0x6
    80000172:	352080e7          	jalr	850(ra) # 800064c0 <release>
  if(r)
    80000176:	b7d5                	j	8000015a <kalloc+0x42>

0000000080000178 <memset>:
#include "types.h"

void*
memset(void *dst, int c, uint n)
{
    80000178:	1141                	addi	sp,sp,-16
    8000017a:	e422                	sd	s0,8(sp)
    8000017c:	0800                	addi	s0,sp,16
  char *cdst = (char *) dst;
  int i;
  for(i = 0; i < n; i++){
    8000017e:	ce09                	beqz	a2,80000198 <memset+0x20>
    80000180:	87aa                	mv	a5,a0
    80000182:	fff6071b          	addiw	a4,a2,-1
    80000186:	1702                	slli	a4,a4,0x20
    80000188:	9301                	srli	a4,a4,0x20
    8000018a:	0705                	addi	a4,a4,1
    8000018c:	972a                	add	a4,a4,a0
    cdst[i] = c;
    8000018e:	00b78023          	sb	a1,0(a5)
  for(i = 0; i < n; i++){
    80000192:	0785                	addi	a5,a5,1
    80000194:	fee79de3          	bne	a5,a4,8000018e <memset+0x16>
  }
  return dst;
}
    80000198:	6422                	ld	s0,8(sp)
    8000019a:	0141                	addi	sp,sp,16
    8000019c:	8082                	ret

000000008000019e <memcmp>:

int
memcmp(const void *v1, const void *v2, uint n)
{
    8000019e:	1141                	addi	sp,sp,-16
    800001a0:	e422                	sd	s0,8(sp)
    800001a2:	0800                	addi	s0,sp,16
  const uchar *s1, *s2;

  s1 = v1;
  s2 = v2;
  while(n-- > 0){
    800001a4:	ca05                	beqz	a2,800001d4 <memcmp+0x36>
    800001a6:	fff6069b          	addiw	a3,a2,-1
    800001aa:	1682                	slli	a3,a3,0x20
    800001ac:	9281                	srli	a3,a3,0x20
    800001ae:	0685                	addi	a3,a3,1
    800001b0:	96aa                	add	a3,a3,a0
    if(*s1 != *s2)
    800001b2:	00054783          	lbu	a5,0(a0)
    800001b6:	0005c703          	lbu	a4,0(a1)
    800001ba:	00e79863          	bne	a5,a4,800001ca <memcmp+0x2c>
      return *s1 - *s2;
    s1++, s2++;
    800001be:	0505                	addi	a0,a0,1
    800001c0:	0585                	addi	a1,a1,1
  while(n-- > 0){
    800001c2:	fed518e3          	bne	a0,a3,800001b2 <memcmp+0x14>
  }

  return 0;
    800001c6:	4501                	li	a0,0
    800001c8:	a019                	j	800001ce <memcmp+0x30>
      return *s1 - *s2;
    800001ca:	40e7853b          	subw	a0,a5,a4
}
    800001ce:	6422                	ld	s0,8(sp)
    800001d0:	0141                	addi	sp,sp,16
    800001d2:	8082                	ret
  return 0;
    800001d4:	4501                	li	a0,0
    800001d6:	bfe5                	j	800001ce <memcmp+0x30>

00000000800001d8 <memmove>:

void*
memmove(void *dst, const void *src, uint n)
{
    800001d8:	1141                	addi	sp,sp,-16
    800001da:	e422                	sd	s0,8(sp)
    800001dc:	0800                	addi	s0,sp,16
  const char *s;
  char *d;

  if(n == 0)
    800001de:	ca0d                	beqz	a2,80000210 <memmove+0x38>
    return dst;
  
  s = src;
  d = dst;
  if(s < d && s + n > d){
    800001e0:	00a5f963          	bgeu	a1,a0,800001f2 <memmove+0x1a>
    800001e4:	02061693          	slli	a3,a2,0x20
    800001e8:	9281                	srli	a3,a3,0x20
    800001ea:	00d58733          	add	a4,a1,a3
    800001ee:	02e56463          	bltu	a0,a4,80000216 <memmove+0x3e>
    s += n;
    d += n;
    while(n-- > 0)
      *--d = *--s;
  } else
    while(n-- > 0)
    800001f2:	fff6079b          	addiw	a5,a2,-1
    800001f6:	1782                	slli	a5,a5,0x20
    800001f8:	9381                	srli	a5,a5,0x20
    800001fa:	0785                	addi	a5,a5,1
    800001fc:	97ae                	add	a5,a5,a1
    800001fe:	872a                	mv	a4,a0
      *d++ = *s++;
    80000200:	0585                	addi	a1,a1,1
    80000202:	0705                	addi	a4,a4,1
    80000204:	fff5c683          	lbu	a3,-1(a1)
    80000208:	fed70fa3          	sb	a3,-1(a4)
    while(n-- > 0)
    8000020c:	fef59ae3          	bne	a1,a5,80000200 <memmove+0x28>

  return dst;
}
    80000210:	6422                	ld	s0,8(sp)
    80000212:	0141                	addi	sp,sp,16
    80000214:	8082                	ret
    d += n;
    80000216:	96aa                	add	a3,a3,a0
    while(n-- > 0)
    80000218:	fff6079b          	addiw	a5,a2,-1
    8000021c:	1782                	slli	a5,a5,0x20
    8000021e:	9381                	srli	a5,a5,0x20
    80000220:	fff7c793          	not	a5,a5
    80000224:	97ba                	add	a5,a5,a4
      *--d = *--s;
    80000226:	177d                	addi	a4,a4,-1
    80000228:	16fd                	addi	a3,a3,-1
    8000022a:	00074603          	lbu	a2,0(a4)
    8000022e:	00c68023          	sb	a2,0(a3)
    while(n-- > 0)
    80000232:	fef71ae3          	bne	a4,a5,80000226 <memmove+0x4e>
    80000236:	bfe9                	j	80000210 <memmove+0x38>

0000000080000238 <memcpy>:

// memcpy exists to placate GCC.  Use memmove.
void*
memcpy(void *dst, const void *src, uint n)
{
    80000238:	1141                	addi	sp,sp,-16
    8000023a:	e406                	sd	ra,8(sp)
    8000023c:	e022                	sd	s0,0(sp)
    8000023e:	0800                	addi	s0,sp,16
  return memmove(dst, src, n);
    80000240:	00000097          	auipc	ra,0x0
    80000244:	f98080e7          	jalr	-104(ra) # 800001d8 <memmove>
}
    80000248:	60a2                	ld	ra,8(sp)
    8000024a:	6402                	ld	s0,0(sp)
    8000024c:	0141                	addi	sp,sp,16
    8000024e:	8082                	ret

0000000080000250 <strncmp>:

int
strncmp(const char *p, const char *q, uint n)
{
    80000250:	1141                	addi	sp,sp,-16
    80000252:	e422                	sd	s0,8(sp)
    80000254:	0800                	addi	s0,sp,16
  while(n > 0 && *p && *p == *q)
    80000256:	ce11                	beqz	a2,80000272 <strncmp+0x22>
    80000258:	00054783          	lbu	a5,0(a0)
    8000025c:	cf89                	beqz	a5,80000276 <strncmp+0x26>
    8000025e:	0005c703          	lbu	a4,0(a1)
    80000262:	00f71a63          	bne	a4,a5,80000276 <strncmp+0x26>
    n--, p++, q++;
    80000266:	367d                	addiw	a2,a2,-1
    80000268:	0505                	addi	a0,a0,1
    8000026a:	0585                	addi	a1,a1,1
  while(n > 0 && *p && *p == *q)
    8000026c:	f675                	bnez	a2,80000258 <strncmp+0x8>
  if(n == 0)
    return 0;
    8000026e:	4501                	li	a0,0
    80000270:	a809                	j	80000282 <strncmp+0x32>
    80000272:	4501                	li	a0,0
    80000274:	a039                	j	80000282 <strncmp+0x32>
  if(n == 0)
    80000276:	ca09                	beqz	a2,80000288 <strncmp+0x38>
  return (uchar)*p - (uchar)*q;
    80000278:	00054503          	lbu	a0,0(a0)
    8000027c:	0005c783          	lbu	a5,0(a1)
    80000280:	9d1d                	subw	a0,a0,a5
}
    80000282:	6422                	ld	s0,8(sp)
    80000284:	0141                	addi	sp,sp,16
    80000286:	8082                	ret
    return 0;
    80000288:	4501                	li	a0,0
    8000028a:	bfe5                	j	80000282 <strncmp+0x32>

000000008000028c <strncpy>:

char*
strncpy(char *s, const char *t, int n)
{
    8000028c:	1141                	addi	sp,sp,-16
    8000028e:	e422                	sd	s0,8(sp)
    80000290:	0800                	addi	s0,sp,16
  char *os;

  os = s;
  while(n-- > 0 && (*s++ = *t++) != 0)
    80000292:	872a                	mv	a4,a0
    80000294:	8832                	mv	a6,a2
    80000296:	367d                	addiw	a2,a2,-1
    80000298:	01005963          	blez	a6,800002aa <strncpy+0x1e>
    8000029c:	0705                	addi	a4,a4,1
    8000029e:	0005c783          	lbu	a5,0(a1)
    800002a2:	fef70fa3          	sb	a5,-1(a4)
    800002a6:	0585                	addi	a1,a1,1
    800002a8:	f7f5                	bnez	a5,80000294 <strncpy+0x8>
    ;
  while(n-- > 0)
    800002aa:	00c05d63          	blez	a2,800002c4 <strncpy+0x38>
    800002ae:	86ba                	mv	a3,a4
    *s++ = 0;
    800002b0:	0685                	addi	a3,a3,1
    800002b2:	fe068fa3          	sb	zero,-1(a3)
  while(n-- > 0)
    800002b6:	fff6c793          	not	a5,a3
    800002ba:	9fb9                	addw	a5,a5,a4
    800002bc:	010787bb          	addw	a5,a5,a6
    800002c0:	fef048e3          	bgtz	a5,800002b0 <strncpy+0x24>
  return os;
}
    800002c4:	6422                	ld	s0,8(sp)
    800002c6:	0141                	addi	sp,sp,16
    800002c8:	8082                	ret

00000000800002ca <safestrcpy>:

// Like strncpy but guaranteed to NUL-terminate.
char*
safestrcpy(char *s, const char *t, int n)
{
    800002ca:	1141                	addi	sp,sp,-16
    800002cc:	e422                	sd	s0,8(sp)
    800002ce:	0800                	addi	s0,sp,16
  char *os;

  os = s;
  if(n <= 0)
    800002d0:	02c05363          	blez	a2,800002f6 <safestrcpy+0x2c>
    800002d4:	fff6069b          	addiw	a3,a2,-1
    800002d8:	1682                	slli	a3,a3,0x20
    800002da:	9281                	srli	a3,a3,0x20
    800002dc:	96ae                	add	a3,a3,a1
    800002de:	87aa                	mv	a5,a0
    return os;
  while(--n > 0 && (*s++ = *t++) != 0)
    800002e0:	00d58963          	beq	a1,a3,800002f2 <safestrcpy+0x28>
    800002e4:	0585                	addi	a1,a1,1
    800002e6:	0785                	addi	a5,a5,1
    800002e8:	fff5c703          	lbu	a4,-1(a1)
    800002ec:	fee78fa3          	sb	a4,-1(a5)
    800002f0:	fb65                	bnez	a4,800002e0 <safestrcpy+0x16>
    ;
  *s = 0;
    800002f2:	00078023          	sb	zero,0(a5)
  return os;
}
    800002f6:	6422                	ld	s0,8(sp)
    800002f8:	0141                	addi	sp,sp,16
    800002fa:	8082                	ret

00000000800002fc <strlen>:

int
strlen(const char *s)
{
    800002fc:	1141                	addi	sp,sp,-16
    800002fe:	e422                	sd	s0,8(sp)
    80000300:	0800                	addi	s0,sp,16
  int n;

  for(n = 0; s[n]; n++)
    80000302:	00054783          	lbu	a5,0(a0)
    80000306:	cf91                	beqz	a5,80000322 <strlen+0x26>
    80000308:	0505                	addi	a0,a0,1
    8000030a:	87aa                	mv	a5,a0
    8000030c:	4685                	li	a3,1
    8000030e:	9e89                	subw	a3,a3,a0
    80000310:	00f6853b          	addw	a0,a3,a5
    80000314:	0785                	addi	a5,a5,1
    80000316:	fff7c703          	lbu	a4,-1(a5)
    8000031a:	fb7d                	bnez	a4,80000310 <strlen+0x14>
    ;
  return n;
}
    8000031c:	6422                	ld	s0,8(sp)
    8000031e:	0141                	addi	sp,sp,16
    80000320:	8082                	ret
  for(n = 0; s[n]; n++)
    80000322:	4501                	li	a0,0
    80000324:	bfe5                	j	8000031c <strlen+0x20>

0000000080000326 <main>:
volatile static int started = 0;

// start() jumps here in supervisor mode on all CPUs.
void
main()
{
    80000326:	1141                	addi	sp,sp,-16
    80000328:	e406                	sd	ra,8(sp)
    8000032a:	e022                	sd	s0,0(sp)
    8000032c:	0800                	addi	s0,sp,16
  if(cpuid() == 0){
    8000032e:	00001097          	auipc	ra,0x1
    80000332:	c4a080e7          	jalr	-950(ra) # 80000f78 <cpuid>
    virtio_disk_init(); // emulated hard disk
    userinit();      // first user process
    __sync_synchronize();
    started = 1;
  } else {
    while(started == 0)
    80000336:	00008717          	auipc	a4,0x8
    8000033a:	62a70713          	addi	a4,a4,1578 # 80008960 <started>
  if(cpuid() == 0){
    8000033e:	c139                	beqz	a0,80000384 <main+0x5e>
    while(started == 0)
    80000340:	431c                	lw	a5,0(a4)
    80000342:	2781                	sext.w	a5,a5
    80000344:	dff5                	beqz	a5,80000340 <main+0x1a>
      ;
    __sync_synchronize();
    80000346:	0ff0000f          	fence
    printf("hart %d starting\n", cpuid());
    8000034a:	00001097          	auipc	ra,0x1
    8000034e:	c2e080e7          	jalr	-978(ra) # 80000f78 <cpuid>
    80000352:	85aa                	mv	a1,a0
    80000354:	00008517          	auipc	a0,0x8
    80000358:	ce450513          	addi	a0,a0,-796 # 80008038 <etext+0x38>
    8000035c:	00006097          	auipc	ra,0x6
    80000360:	bb0080e7          	jalr	-1104(ra) # 80005f0c <printf>
    kvminithart();    // turn on paging
    80000364:	00000097          	auipc	ra,0x0
    80000368:	0d8080e7          	jalr	216(ra) # 8000043c <kvminithart>
    trapinithart();   // install kernel trap vector
    8000036c:	00002097          	auipc	ra,0x2
    80000370:	98a080e7          	jalr	-1654(ra) # 80001cf6 <trapinithart>
    plicinithart();   // ask PLIC for device interrupts
    80000374:	00005097          	auipc	ra,0x5
    80000378:	fec080e7          	jalr	-20(ra) # 80005360 <plicinithart>
  }

  scheduler();        
    8000037c:	00001097          	auipc	ra,0x1
    80000380:	1d4080e7          	jalr	468(ra) # 80001550 <scheduler>
    consoleinit();
    80000384:	00006097          	auipc	ra,0x6
    80000388:	a50080e7          	jalr	-1456(ra) # 80005dd4 <consoleinit>
    printfinit();
    8000038c:	00006097          	auipc	ra,0x6
    80000390:	d66080e7          	jalr	-666(ra) # 800060f2 <printfinit>
    printf("\n");
    80000394:	00008517          	auipc	a0,0x8
    80000398:	cb450513          	addi	a0,a0,-844 # 80008048 <etext+0x48>
    8000039c:	00006097          	auipc	ra,0x6
    800003a0:	b70080e7          	jalr	-1168(ra) # 80005f0c <printf>
    printf("xv6 kernel is booting\n");
    800003a4:	00008517          	auipc	a0,0x8
    800003a8:	c7c50513          	addi	a0,a0,-900 # 80008020 <etext+0x20>
    800003ac:	00006097          	auipc	ra,0x6
    800003b0:	b60080e7          	jalr	-1184(ra) # 80005f0c <printf>
    printf("\n");
    800003b4:	00008517          	auipc	a0,0x8
    800003b8:	c9450513          	addi	a0,a0,-876 # 80008048 <etext+0x48>
    800003bc:	00006097          	auipc	ra,0x6
    800003c0:	b50080e7          	jalr	-1200(ra) # 80005f0c <printf>
    kinit();         // physical page allocator
    800003c4:	00000097          	auipc	ra,0x0
    800003c8:	d18080e7          	jalr	-744(ra) # 800000dc <kinit>
    kvminit();       // create kernel page table
    800003cc:	00000097          	auipc	ra,0x0
    800003d0:	34a080e7          	jalr	842(ra) # 80000716 <kvminit>
    kvminithart();   // turn on paging
    800003d4:	00000097          	auipc	ra,0x0
    800003d8:	068080e7          	jalr	104(ra) # 8000043c <kvminithart>
    procinit();      // process table
    800003dc:	00001097          	auipc	ra,0x1
    800003e0:	aea080e7          	jalr	-1302(ra) # 80000ec6 <procinit>
    trapinit();      // trap vectors
    800003e4:	00002097          	auipc	ra,0x2
    800003e8:	8ea080e7          	jalr	-1814(ra) # 80001cce <trapinit>
    trapinithart();  // install kernel trap vector
    800003ec:	00002097          	auipc	ra,0x2
    800003f0:	90a080e7          	jalr	-1782(ra) # 80001cf6 <trapinithart>
    plicinit();      // set up interrupt controller
    800003f4:	00005097          	auipc	ra,0x5
    800003f8:	f56080e7          	jalr	-170(ra) # 8000534a <plicinit>
    plicinithart();  // ask PLIC for device interrupts
    800003fc:	00005097          	auipc	ra,0x5
    80000400:	f64080e7          	jalr	-156(ra) # 80005360 <plicinithart>
    binit();         // buffer cache
    80000404:	00002097          	auipc	ra,0x2
    80000408:	0fa080e7          	jalr	250(ra) # 800024fe <binit>
    iinit();         // inode table
    8000040c:	00002097          	auipc	ra,0x2
    80000410:	79e080e7          	jalr	1950(ra) # 80002baa <iinit>
    fileinit();      // file table
    80000414:	00003097          	auipc	ra,0x3
    80000418:	73c080e7          	jalr	1852(ra) # 80003b50 <fileinit>
    virtio_disk_init(); // emulated hard disk
    8000041c:	00005097          	auipc	ra,0x5
    80000420:	04c080e7          	jalr	76(ra) # 80005468 <virtio_disk_init>
    userinit();      // first user process
    80000424:	00001097          	auipc	ra,0x1
    80000428:	f12080e7          	jalr	-238(ra) # 80001336 <userinit>
    __sync_synchronize();
    8000042c:	0ff0000f          	fence
    started = 1;
    80000430:	4785                	li	a5,1
    80000432:	00008717          	auipc	a4,0x8
    80000436:	52f72723          	sw	a5,1326(a4) # 80008960 <started>
    8000043a:	b789                	j	8000037c <main+0x56>

000000008000043c <kvminithart>:

// Switch h/w page table register to the kernel's page table,
// and enable paging.
void
kvminithart()
{
    8000043c:	1141                	addi	sp,sp,-16
    8000043e:	e422                	sd	s0,8(sp)
    80000440:	0800                	addi	s0,sp,16
// flush the TLB.
static inline void
sfence_vma()
{
  // the zero, zero means flush all TLB entries.
  asm volatile("sfence.vma zero, zero");
    80000442:	12000073          	sfence.vma
  // wait for any previous writes to the page table memory to finish.
  sfence_vma();

  w_satp(MAKE_SATP(kernel_pagetable));
    80000446:	00008797          	auipc	a5,0x8
    8000044a:	52a7b783          	ld	a5,1322(a5) # 80008970 <kernel_pagetable>
    8000044e:	83b1                	srli	a5,a5,0xc
    80000450:	577d                	li	a4,-1
    80000452:	177e                	slli	a4,a4,0x3f
    80000454:	8fd9                	or	a5,a5,a4
  asm volatile("csrw satp, %0" : : "r" (x));
    80000456:	18079073          	csrw	satp,a5
  asm volatile("sfence.vma zero, zero");
    8000045a:	12000073          	sfence.vma

  // flush stale entries from the TLB.
  sfence_vma();
}
    8000045e:	6422                	ld	s0,8(sp)
    80000460:	0141                	addi	sp,sp,16
    80000462:	8082                	ret

0000000080000464 <walk>:
//   21..29 -- 9 bits of level-1 index.
//   12..20 -- 9 bits of level-0 index.
//    0..11 -- 12 bits of byte offset within the page.
pte_t *
walk(pagetable_t pagetable, uint64 va, int alloc)
{
    80000464:	7139                	addi	sp,sp,-64
    80000466:	fc06                	sd	ra,56(sp)
    80000468:	f822                	sd	s0,48(sp)
    8000046a:	f426                	sd	s1,40(sp)
    8000046c:	f04a                	sd	s2,32(sp)
    8000046e:	ec4e                	sd	s3,24(sp)
    80000470:	e852                	sd	s4,16(sp)
    80000472:	e456                	sd	s5,8(sp)
    80000474:	e05a                	sd	s6,0(sp)
    80000476:	0080                	addi	s0,sp,64
    80000478:	84aa                	mv	s1,a0
    8000047a:	89ae                	mv	s3,a1
    8000047c:	8ab2                	mv	s5,a2
  if(va >= MAXVA)
    8000047e:	57fd                	li	a5,-1
    80000480:	83e9                	srli	a5,a5,0x1a
    80000482:	4a79                	li	s4,30
    panic("walk");

  for(int level = 2; level > 0; level--) {
    80000484:	4b31                	li	s6,12
  if(va >= MAXVA)
    80000486:	04b7f263          	bgeu	a5,a1,800004ca <walk+0x66>
    panic("walk");
    8000048a:	00008517          	auipc	a0,0x8
    8000048e:	bc650513          	addi	a0,a0,-1082 # 80008050 <etext+0x50>
    80000492:	00006097          	auipc	ra,0x6
    80000496:	a30080e7          	jalr	-1488(ra) # 80005ec2 <panic>
    pte_t *pte = &pagetable[PX(level, va)];
    if(*pte & PTE_V) {
      pagetable = (pagetable_t)PTE2PA(*pte);
    } else {
      if(!alloc || (pagetable = (pde_t*)kalloc()) == 0)
    8000049a:	060a8663          	beqz	s5,80000506 <walk+0xa2>
    8000049e:	00000097          	auipc	ra,0x0
    800004a2:	c7a080e7          	jalr	-902(ra) # 80000118 <kalloc>
    800004a6:	84aa                	mv	s1,a0
    800004a8:	c529                	beqz	a0,800004f2 <walk+0x8e>
        return 0;
      memset(pagetable, 0, PGSIZE);
    800004aa:	6605                	lui	a2,0x1
    800004ac:	4581                	li	a1,0
    800004ae:	00000097          	auipc	ra,0x0
    800004b2:	cca080e7          	jalr	-822(ra) # 80000178 <memset>
      *pte = PA2PTE(pagetable) | PTE_V;
    800004b6:	00c4d793          	srli	a5,s1,0xc
    800004ba:	07aa                	slli	a5,a5,0xa
    800004bc:	0017e793          	ori	a5,a5,1
    800004c0:	00f93023          	sd	a5,0(s2)
  for(int level = 2; level > 0; level--) {
    800004c4:	3a5d                	addiw	s4,s4,-9
    800004c6:	036a0063          	beq	s4,s6,800004e6 <walk+0x82>
    pte_t *pte = &pagetable[PX(level, va)];
    800004ca:	0149d933          	srl	s2,s3,s4
    800004ce:	1ff97913          	andi	s2,s2,511
    800004d2:	090e                	slli	s2,s2,0x3
    800004d4:	9926                	add	s2,s2,s1
    if(*pte & PTE_V) {
    800004d6:	00093483          	ld	s1,0(s2)
    800004da:	0014f793          	andi	a5,s1,1
    800004de:	dfd5                	beqz	a5,8000049a <walk+0x36>
      pagetable = (pagetable_t)PTE2PA(*pte);
    800004e0:	80a9                	srli	s1,s1,0xa
    800004e2:	04b2                	slli	s1,s1,0xc
    800004e4:	b7c5                	j	800004c4 <walk+0x60>
    }
  }
  return &pagetable[PX(0, va)];
    800004e6:	00c9d513          	srli	a0,s3,0xc
    800004ea:	1ff57513          	andi	a0,a0,511
    800004ee:	050e                	slli	a0,a0,0x3
    800004f0:	9526                	add	a0,a0,s1
}
    800004f2:	70e2                	ld	ra,56(sp)
    800004f4:	7442                	ld	s0,48(sp)
    800004f6:	74a2                	ld	s1,40(sp)
    800004f8:	7902                	ld	s2,32(sp)
    800004fa:	69e2                	ld	s3,24(sp)
    800004fc:	6a42                	ld	s4,16(sp)
    800004fe:	6aa2                	ld	s5,8(sp)
    80000500:	6b02                	ld	s6,0(sp)
    80000502:	6121                	addi	sp,sp,64
    80000504:	8082                	ret
        return 0;
    80000506:	4501                	li	a0,0
    80000508:	b7ed                	j	800004f2 <walk+0x8e>

000000008000050a <walkaddr>:
walkaddr(pagetable_t pagetable, uint64 va)
{
  pte_t *pte;
  uint64 pa;

  if(va >= MAXVA)
    8000050a:	57fd                	li	a5,-1
    8000050c:	83e9                	srli	a5,a5,0x1a
    8000050e:	00b7f463          	bgeu	a5,a1,80000516 <walkaddr+0xc>
    return 0;
    80000512:	4501                	li	a0,0
    return 0;
  if((*pte & PTE_U) == 0)
    return 0;
  pa = PTE2PA(*pte);
  return pa;
}
    80000514:	8082                	ret
{
    80000516:	1141                	addi	sp,sp,-16
    80000518:	e406                	sd	ra,8(sp)
    8000051a:	e022                	sd	s0,0(sp)
    8000051c:	0800                	addi	s0,sp,16
  pte = walk(pagetable, va, 0);
    8000051e:	4601                	li	a2,0
    80000520:	00000097          	auipc	ra,0x0
    80000524:	f44080e7          	jalr	-188(ra) # 80000464 <walk>
  if(pte == 0)
    80000528:	c105                	beqz	a0,80000548 <walkaddr+0x3e>
  if((*pte & PTE_V) == 0)
    8000052a:	611c                	ld	a5,0(a0)
  if((*pte & PTE_U) == 0)
    8000052c:	0117f693          	andi	a3,a5,17
    80000530:	4745                	li	a4,17
    return 0;
    80000532:	4501                	li	a0,0
  if((*pte & PTE_U) == 0)
    80000534:	00e68663          	beq	a3,a4,80000540 <walkaddr+0x36>
}
    80000538:	60a2                	ld	ra,8(sp)
    8000053a:	6402                	ld	s0,0(sp)
    8000053c:	0141                	addi	sp,sp,16
    8000053e:	8082                	ret
  pa = PTE2PA(*pte);
    80000540:	00a7d513          	srli	a0,a5,0xa
    80000544:	0532                	slli	a0,a0,0xc
  return pa;
    80000546:	bfcd                	j	80000538 <walkaddr+0x2e>
    return 0;
    80000548:	4501                	li	a0,0
    8000054a:	b7fd                	j	80000538 <walkaddr+0x2e>

000000008000054c <mappages>:
// va and size MUST be page-aligned.
// Returns 0 on success, -1 if walk() couldn't
// allocate a needed page-table page.
int
mappages(pagetable_t pagetable, uint64 va, uint64 size, uint64 pa, int perm)
{
    8000054c:	715d                	addi	sp,sp,-80
    8000054e:	e486                	sd	ra,72(sp)
    80000550:	e0a2                	sd	s0,64(sp)
    80000552:	fc26                	sd	s1,56(sp)
    80000554:	f84a                	sd	s2,48(sp)
    80000556:	f44e                	sd	s3,40(sp)
    80000558:	f052                	sd	s4,32(sp)
    8000055a:	ec56                	sd	s5,24(sp)
    8000055c:	e85a                	sd	s6,16(sp)
    8000055e:	e45e                	sd	s7,8(sp)
    80000560:	0880                	addi	s0,sp,80
  uint64 a, last;
  pte_t *pte;

  if((va % PGSIZE) != 0)
    80000562:	03459793          	slli	a5,a1,0x34
    80000566:	e385                	bnez	a5,80000586 <mappages+0x3a>
    80000568:	8aaa                	mv	s5,a0
    8000056a:	8b3a                	mv	s6,a4
    panic("mappages: va not aligned");

  if((size % PGSIZE) != 0)
    8000056c:	03461793          	slli	a5,a2,0x34
    80000570:	e39d                	bnez	a5,80000596 <mappages+0x4a>
    panic("mappages: size not aligned");

  if(size == 0)
    80000572:	ca15                	beqz	a2,800005a6 <mappages+0x5a>
    panic("mappages: size");
  
  a = va;
  last = va + size - PGSIZE;
    80000574:	79fd                	lui	s3,0xfffff
    80000576:	964e                	add	a2,a2,s3
    80000578:	00b609b3          	add	s3,a2,a1
  a = va;
    8000057c:	892e                	mv	s2,a1
    8000057e:	40b68a33          	sub	s4,a3,a1
    if(*pte & PTE_V)
      panic("mappages: remap");
    *pte = PA2PTE(pa) | perm | PTE_V;
    if(a == last)
      break;
    a += PGSIZE;
    80000582:	6b85                	lui	s7,0x1
    80000584:	a091                	j	800005c8 <mappages+0x7c>
    panic("mappages: va not aligned");
    80000586:	00008517          	auipc	a0,0x8
    8000058a:	ad250513          	addi	a0,a0,-1326 # 80008058 <etext+0x58>
    8000058e:	00006097          	auipc	ra,0x6
    80000592:	934080e7          	jalr	-1740(ra) # 80005ec2 <panic>
    panic("mappages: size not aligned");
    80000596:	00008517          	auipc	a0,0x8
    8000059a:	ae250513          	addi	a0,a0,-1310 # 80008078 <etext+0x78>
    8000059e:	00006097          	auipc	ra,0x6
    800005a2:	924080e7          	jalr	-1756(ra) # 80005ec2 <panic>
    panic("mappages: size");
    800005a6:	00008517          	auipc	a0,0x8
    800005aa:	af250513          	addi	a0,a0,-1294 # 80008098 <etext+0x98>
    800005ae:	00006097          	auipc	ra,0x6
    800005b2:	914080e7          	jalr	-1772(ra) # 80005ec2 <panic>
      panic("mappages: remap");
    800005b6:	00008517          	auipc	a0,0x8
    800005ba:	af250513          	addi	a0,a0,-1294 # 800080a8 <etext+0xa8>
    800005be:	00006097          	auipc	ra,0x6
    800005c2:	904080e7          	jalr	-1788(ra) # 80005ec2 <panic>
    a += PGSIZE;
    800005c6:	995e                	add	s2,s2,s7
  for(;;){
    800005c8:	012a04b3          	add	s1,s4,s2
    if((pte = walk(pagetable, a, 1)) == 0)
    800005cc:	4605                	li	a2,1
    800005ce:	85ca                	mv	a1,s2
    800005d0:	8556                	mv	a0,s5
    800005d2:	00000097          	auipc	ra,0x0
    800005d6:	e92080e7          	jalr	-366(ra) # 80000464 <walk>
    800005da:	cd19                	beqz	a0,800005f8 <mappages+0xac>
    if(*pte & PTE_V)
    800005dc:	611c                	ld	a5,0(a0)
    800005de:	8b85                	andi	a5,a5,1
    800005e0:	fbf9                	bnez	a5,800005b6 <mappages+0x6a>
    *pte = PA2PTE(pa) | perm | PTE_V;
    800005e2:	80b1                	srli	s1,s1,0xc
    800005e4:	04aa                	slli	s1,s1,0xa
    800005e6:	0164e4b3          	or	s1,s1,s6
    800005ea:	0014e493          	ori	s1,s1,1
    800005ee:	e104                	sd	s1,0(a0)
    if(a == last)
    800005f0:	fd391be3          	bne	s2,s3,800005c6 <mappages+0x7a>
    pa += PGSIZE;
  }
  return 0;
    800005f4:	4501                	li	a0,0
    800005f6:	a011                	j	800005fa <mappages+0xae>
      return -1;
    800005f8:	557d                	li	a0,-1
}
    800005fa:	60a6                	ld	ra,72(sp)
    800005fc:	6406                	ld	s0,64(sp)
    800005fe:	74e2                	ld	s1,56(sp)
    80000600:	7942                	ld	s2,48(sp)
    80000602:	79a2                	ld	s3,40(sp)
    80000604:	7a02                	ld	s4,32(sp)
    80000606:	6ae2                	ld	s5,24(sp)
    80000608:	6b42                	ld	s6,16(sp)
    8000060a:	6ba2                	ld	s7,8(sp)
    8000060c:	6161                	addi	sp,sp,80
    8000060e:	8082                	ret

0000000080000610 <kvmmap>:
{
    80000610:	1141                	addi	sp,sp,-16
    80000612:	e406                	sd	ra,8(sp)
    80000614:	e022                	sd	s0,0(sp)
    80000616:	0800                	addi	s0,sp,16
    80000618:	87b6                	mv	a5,a3
  if(mappages(kpgtbl, va, sz, pa, perm) != 0)
    8000061a:	86b2                	mv	a3,a2
    8000061c:	863e                	mv	a2,a5
    8000061e:	00000097          	auipc	ra,0x0
    80000622:	f2e080e7          	jalr	-210(ra) # 8000054c <mappages>
    80000626:	e509                	bnez	a0,80000630 <kvmmap+0x20>
}
    80000628:	60a2                	ld	ra,8(sp)
    8000062a:	6402                	ld	s0,0(sp)
    8000062c:	0141                	addi	sp,sp,16
    8000062e:	8082                	ret
    panic("kvmmap");
    80000630:	00008517          	auipc	a0,0x8
    80000634:	a8850513          	addi	a0,a0,-1400 # 800080b8 <etext+0xb8>
    80000638:	00006097          	auipc	ra,0x6
    8000063c:	88a080e7          	jalr	-1910(ra) # 80005ec2 <panic>

0000000080000640 <kvmmake>:
{
    80000640:	1101                	addi	sp,sp,-32
    80000642:	ec06                	sd	ra,24(sp)
    80000644:	e822                	sd	s0,16(sp)
    80000646:	e426                	sd	s1,8(sp)
    80000648:	e04a                	sd	s2,0(sp)
    8000064a:	1000                	addi	s0,sp,32
  kpgtbl = (pagetable_t) kalloc();
    8000064c:	00000097          	auipc	ra,0x0
    80000650:	acc080e7          	jalr	-1332(ra) # 80000118 <kalloc>
    80000654:	84aa                	mv	s1,a0
  memset(kpgtbl, 0, PGSIZE);
    80000656:	6605                	lui	a2,0x1
    80000658:	4581                	li	a1,0
    8000065a:	00000097          	auipc	ra,0x0
    8000065e:	b1e080e7          	jalr	-1250(ra) # 80000178 <memset>
  kvmmap(kpgtbl, UART0, UART0, PGSIZE, PTE_R | PTE_W);
    80000662:	4719                	li	a4,6
    80000664:	6685                	lui	a3,0x1
    80000666:	10000637          	lui	a2,0x10000
    8000066a:	100005b7          	lui	a1,0x10000
    8000066e:	8526                	mv	a0,s1
    80000670:	00000097          	auipc	ra,0x0
    80000674:	fa0080e7          	jalr	-96(ra) # 80000610 <kvmmap>
  kvmmap(kpgtbl, VIRTIO0, VIRTIO0, PGSIZE, PTE_R | PTE_W);
    80000678:	4719                	li	a4,6
    8000067a:	6685                	lui	a3,0x1
    8000067c:	10001637          	lui	a2,0x10001
    80000680:	100015b7          	lui	a1,0x10001
    80000684:	8526                	mv	a0,s1
    80000686:	00000097          	auipc	ra,0x0
    8000068a:	f8a080e7          	jalr	-118(ra) # 80000610 <kvmmap>
  kvmmap(kpgtbl, PLIC, PLIC, 0x400000, PTE_R | PTE_W);
    8000068e:	4719                	li	a4,6
    80000690:	004006b7          	lui	a3,0x400
    80000694:	0c000637          	lui	a2,0xc000
    80000698:	0c0005b7          	lui	a1,0xc000
    8000069c:	8526                	mv	a0,s1
    8000069e:	00000097          	auipc	ra,0x0
    800006a2:	f72080e7          	jalr	-142(ra) # 80000610 <kvmmap>
  kvmmap(kpgtbl, KERNBASE, KERNBASE, (uint64)etext-KERNBASE, PTE_R | PTE_X);
    800006a6:	00008917          	auipc	s2,0x8
    800006aa:	95a90913          	addi	s2,s2,-1702 # 80008000 <etext>
    800006ae:	4729                	li	a4,10
    800006b0:	80008697          	auipc	a3,0x80008
    800006b4:	95068693          	addi	a3,a3,-1712 # 8000 <_entry-0x7fff8000>
    800006b8:	4605                	li	a2,1
    800006ba:	067e                	slli	a2,a2,0x1f
    800006bc:	85b2                	mv	a1,a2
    800006be:	8526                	mv	a0,s1
    800006c0:	00000097          	auipc	ra,0x0
    800006c4:	f50080e7          	jalr	-176(ra) # 80000610 <kvmmap>
  kvmmap(kpgtbl, (uint64)etext, (uint64)etext, PHYSTOP-(uint64)etext, PTE_R | PTE_W);
    800006c8:	4719                	li	a4,6
    800006ca:	46c5                	li	a3,17
    800006cc:	06ee                	slli	a3,a3,0x1b
    800006ce:	412686b3          	sub	a3,a3,s2
    800006d2:	864a                	mv	a2,s2
    800006d4:	85ca                	mv	a1,s2
    800006d6:	8526                	mv	a0,s1
    800006d8:	00000097          	auipc	ra,0x0
    800006dc:	f38080e7          	jalr	-200(ra) # 80000610 <kvmmap>
  kvmmap(kpgtbl, TRAMPOLINE, (uint64)trampoline, PGSIZE, PTE_R | PTE_X);
    800006e0:	4729                	li	a4,10
    800006e2:	6685                	lui	a3,0x1
    800006e4:	00007617          	auipc	a2,0x7
    800006e8:	91c60613          	addi	a2,a2,-1764 # 80007000 <_trampoline>
    800006ec:	040005b7          	lui	a1,0x4000
    800006f0:	15fd                	addi	a1,a1,-1
    800006f2:	05b2                	slli	a1,a1,0xc
    800006f4:	8526                	mv	a0,s1
    800006f6:	00000097          	auipc	ra,0x0
    800006fa:	f1a080e7          	jalr	-230(ra) # 80000610 <kvmmap>
  proc_mapstacks(kpgtbl);
    800006fe:	8526                	mv	a0,s1
    80000700:	00000097          	auipc	ra,0x0
    80000704:	732080e7          	jalr	1842(ra) # 80000e32 <proc_mapstacks>
}
    80000708:	8526                	mv	a0,s1
    8000070a:	60e2                	ld	ra,24(sp)
    8000070c:	6442                	ld	s0,16(sp)
    8000070e:	64a2                	ld	s1,8(sp)
    80000710:	6902                	ld	s2,0(sp)
    80000712:	6105                	addi	sp,sp,32
    80000714:	8082                	ret

0000000080000716 <kvminit>:
{
    80000716:	1141                	addi	sp,sp,-16
    80000718:	e406                	sd	ra,8(sp)
    8000071a:	e022                	sd	s0,0(sp)
    8000071c:	0800                	addi	s0,sp,16
  kernel_pagetable = kvmmake();
    8000071e:	00000097          	auipc	ra,0x0
    80000722:	f22080e7          	jalr	-222(ra) # 80000640 <kvmmake>
    80000726:	00008797          	auipc	a5,0x8
    8000072a:	24a7b523          	sd	a0,586(a5) # 80008970 <kernel_pagetable>
}
    8000072e:	60a2                	ld	ra,8(sp)
    80000730:	6402                	ld	s0,0(sp)
    80000732:	0141                	addi	sp,sp,16
    80000734:	8082                	ret

0000000080000736 <uvmunmap>:
// Remove npages of mappings starting from va. va must be
// page-aligned. The mappings must exist.
// Optionally free the physical memory.
void
uvmunmap(pagetable_t pagetable, uint64 va, uint64 npages, int do_free)
{
    80000736:	715d                	addi	sp,sp,-80
    80000738:	e486                	sd	ra,72(sp)
    8000073a:	e0a2                	sd	s0,64(sp)
    8000073c:	fc26                	sd	s1,56(sp)
    8000073e:	f84a                	sd	s2,48(sp)
    80000740:	f44e                	sd	s3,40(sp)
    80000742:	f052                	sd	s4,32(sp)
    80000744:	ec56                	sd	s5,24(sp)
    80000746:	e85a                	sd	s6,16(sp)
    80000748:	e45e                	sd	s7,8(sp)
    8000074a:	0880                	addi	s0,sp,80
  uint64 a;
  pte_t *pte;

  if((va % PGSIZE) != 0)
    8000074c:	03459793          	slli	a5,a1,0x34
    80000750:	e795                	bnez	a5,8000077c <uvmunmap+0x46>
    80000752:	8a2a                	mv	s4,a0
    80000754:	892e                	mv	s2,a1
    80000756:	8ab6                	mv	s5,a3
    panic("uvmunmap: not aligned");

  for(a = va; a < va + npages*PGSIZE; a += PGSIZE){
    80000758:	0632                	slli	a2,a2,0xc
    8000075a:	00b609b3          	add	s3,a2,a1
    if((pte = walk(pagetable, a, 0)) == 0)
      panic("uvmunmap: walk");
    if((*pte & PTE_V) == 0)
      panic("uvmunmap: not mapped");
    if(PTE_FLAGS(*pte) == PTE_V)
    8000075e:	4b85                	li	s7,1
  for(a = va; a < va + npages*PGSIZE; a += PGSIZE){
    80000760:	6b05                	lui	s6,0x1
    80000762:	0735e863          	bltu	a1,s3,800007d2 <uvmunmap+0x9c>
      uint64 pa = PTE2PA(*pte);
      kfree((void*)pa);
    }
    *pte = 0;
  }
}
    80000766:	60a6                	ld	ra,72(sp)
    80000768:	6406                	ld	s0,64(sp)
    8000076a:	74e2                	ld	s1,56(sp)
    8000076c:	7942                	ld	s2,48(sp)
    8000076e:	79a2                	ld	s3,40(sp)
    80000770:	7a02                	ld	s4,32(sp)
    80000772:	6ae2                	ld	s5,24(sp)
    80000774:	6b42                	ld	s6,16(sp)
    80000776:	6ba2                	ld	s7,8(sp)
    80000778:	6161                	addi	sp,sp,80
    8000077a:	8082                	ret
    panic("uvmunmap: not aligned");
    8000077c:	00008517          	auipc	a0,0x8
    80000780:	94450513          	addi	a0,a0,-1724 # 800080c0 <etext+0xc0>
    80000784:	00005097          	auipc	ra,0x5
    80000788:	73e080e7          	jalr	1854(ra) # 80005ec2 <panic>
      panic("uvmunmap: walk");
    8000078c:	00008517          	auipc	a0,0x8
    80000790:	94c50513          	addi	a0,a0,-1716 # 800080d8 <etext+0xd8>
    80000794:	00005097          	auipc	ra,0x5
    80000798:	72e080e7          	jalr	1838(ra) # 80005ec2 <panic>
      panic("uvmunmap: not mapped");
    8000079c:	00008517          	auipc	a0,0x8
    800007a0:	94c50513          	addi	a0,a0,-1716 # 800080e8 <etext+0xe8>
    800007a4:	00005097          	auipc	ra,0x5
    800007a8:	71e080e7          	jalr	1822(ra) # 80005ec2 <panic>
      panic("uvmunmap: not a leaf");
    800007ac:	00008517          	auipc	a0,0x8
    800007b0:	95450513          	addi	a0,a0,-1708 # 80008100 <etext+0x100>
    800007b4:	00005097          	auipc	ra,0x5
    800007b8:	70e080e7          	jalr	1806(ra) # 80005ec2 <panic>
      uint64 pa = PTE2PA(*pte);
    800007bc:	8129                	srli	a0,a0,0xa
      kfree((void*)pa);
    800007be:	0532                	slli	a0,a0,0xc
    800007c0:	00000097          	auipc	ra,0x0
    800007c4:	85c080e7          	jalr	-1956(ra) # 8000001c <kfree>
    *pte = 0;
    800007c8:	0004b023          	sd	zero,0(s1)
  for(a = va; a < va + npages*PGSIZE; a += PGSIZE){
    800007cc:	995a                	add	s2,s2,s6
    800007ce:	f9397ce3          	bgeu	s2,s3,80000766 <uvmunmap+0x30>
    if((pte = walk(pagetable, a, 0)) == 0)
    800007d2:	4601                	li	a2,0
    800007d4:	85ca                	mv	a1,s2
    800007d6:	8552                	mv	a0,s4
    800007d8:	00000097          	auipc	ra,0x0
    800007dc:	c8c080e7          	jalr	-884(ra) # 80000464 <walk>
    800007e0:	84aa                	mv	s1,a0
    800007e2:	d54d                	beqz	a0,8000078c <uvmunmap+0x56>
    if((*pte & PTE_V) == 0)
    800007e4:	6108                	ld	a0,0(a0)
    800007e6:	00157793          	andi	a5,a0,1
    800007ea:	dbcd                	beqz	a5,8000079c <uvmunmap+0x66>
    if(PTE_FLAGS(*pte) == PTE_V)
    800007ec:	3ff57793          	andi	a5,a0,1023
    800007f0:	fb778ee3          	beq	a5,s7,800007ac <uvmunmap+0x76>
    if(do_free){
    800007f4:	fc0a8ae3          	beqz	s5,800007c8 <uvmunmap+0x92>
    800007f8:	b7d1                	j	800007bc <uvmunmap+0x86>

00000000800007fa <uvmcreate>:

// create an empty user page table.
// returns 0 if out of memory.
pagetable_t
uvmcreate()
{
    800007fa:	1101                	addi	sp,sp,-32
    800007fc:	ec06                	sd	ra,24(sp)
    800007fe:	e822                	sd	s0,16(sp)
    80000800:	e426                	sd	s1,8(sp)
    80000802:	1000                	addi	s0,sp,32
  pagetable_t pagetable;
  pagetable = (pagetable_t) kalloc();
    80000804:	00000097          	auipc	ra,0x0
    80000808:	914080e7          	jalr	-1772(ra) # 80000118 <kalloc>
    8000080c:	84aa                	mv	s1,a0
  if(pagetable == 0)
    8000080e:	c519                	beqz	a0,8000081c <uvmcreate+0x22>
    return 0;
  memset(pagetable, 0, PGSIZE);
    80000810:	6605                	lui	a2,0x1
    80000812:	4581                	li	a1,0
    80000814:	00000097          	auipc	ra,0x0
    80000818:	964080e7          	jalr	-1692(ra) # 80000178 <memset>
  return pagetable;
}
    8000081c:	8526                	mv	a0,s1
    8000081e:	60e2                	ld	ra,24(sp)
    80000820:	6442                	ld	s0,16(sp)
    80000822:	64a2                	ld	s1,8(sp)
    80000824:	6105                	addi	sp,sp,32
    80000826:	8082                	ret

0000000080000828 <uvmfirst>:
// Load the user initcode into address 0 of pagetable,
// for the very first process.
// sz must be less than a page.
void
uvmfirst(pagetable_t pagetable, uchar *src, uint sz)
{
    80000828:	7179                	addi	sp,sp,-48
    8000082a:	f406                	sd	ra,40(sp)
    8000082c:	f022                	sd	s0,32(sp)
    8000082e:	ec26                	sd	s1,24(sp)
    80000830:	e84a                	sd	s2,16(sp)
    80000832:	e44e                	sd	s3,8(sp)
    80000834:	e052                	sd	s4,0(sp)
    80000836:	1800                	addi	s0,sp,48
  char *mem;

  if(sz >= PGSIZE)
    80000838:	6785                	lui	a5,0x1
    8000083a:	04f67863          	bgeu	a2,a5,8000088a <uvmfirst+0x62>
    8000083e:	8a2a                	mv	s4,a0
    80000840:	89ae                	mv	s3,a1
    80000842:	84b2                	mv	s1,a2
    panic("uvmfirst: more than a page");
  mem = kalloc();
    80000844:	00000097          	auipc	ra,0x0
    80000848:	8d4080e7          	jalr	-1836(ra) # 80000118 <kalloc>
    8000084c:	892a                	mv	s2,a0
  memset(mem, 0, PGSIZE);
    8000084e:	6605                	lui	a2,0x1
    80000850:	4581                	li	a1,0
    80000852:	00000097          	auipc	ra,0x0
    80000856:	926080e7          	jalr	-1754(ra) # 80000178 <memset>
  mappages(pagetable, 0, PGSIZE, (uint64)mem, PTE_W|PTE_R|PTE_X|PTE_U);
    8000085a:	4779                	li	a4,30
    8000085c:	86ca                	mv	a3,s2
    8000085e:	6605                	lui	a2,0x1
    80000860:	4581                	li	a1,0
    80000862:	8552                	mv	a0,s4
    80000864:	00000097          	auipc	ra,0x0
    80000868:	ce8080e7          	jalr	-792(ra) # 8000054c <mappages>
  memmove(mem, src, sz);
    8000086c:	8626                	mv	a2,s1
    8000086e:	85ce                	mv	a1,s3
    80000870:	854a                	mv	a0,s2
    80000872:	00000097          	auipc	ra,0x0
    80000876:	966080e7          	jalr	-1690(ra) # 800001d8 <memmove>
}
    8000087a:	70a2                	ld	ra,40(sp)
    8000087c:	7402                	ld	s0,32(sp)
    8000087e:	64e2                	ld	s1,24(sp)
    80000880:	6942                	ld	s2,16(sp)
    80000882:	69a2                	ld	s3,8(sp)
    80000884:	6a02                	ld	s4,0(sp)
    80000886:	6145                	addi	sp,sp,48
    80000888:	8082                	ret
    panic("uvmfirst: more than a page");
    8000088a:	00008517          	auipc	a0,0x8
    8000088e:	88e50513          	addi	a0,a0,-1906 # 80008118 <etext+0x118>
    80000892:	00005097          	auipc	ra,0x5
    80000896:	630080e7          	jalr	1584(ra) # 80005ec2 <panic>

000000008000089a <uvmdealloc>:
// newsz.  oldsz and newsz need not be page-aligned, nor does newsz
// need to be less than oldsz.  oldsz can be larger than the actual
// process size.  Returns the new process size.
uint64
uvmdealloc(pagetable_t pagetable, uint64 oldsz, uint64 newsz)
{
    8000089a:	1101                	addi	sp,sp,-32
    8000089c:	ec06                	sd	ra,24(sp)
    8000089e:	e822                	sd	s0,16(sp)
    800008a0:	e426                	sd	s1,8(sp)
    800008a2:	1000                	addi	s0,sp,32
  if(newsz >= oldsz)
    return oldsz;
    800008a4:	84ae                	mv	s1,a1
  if(newsz >= oldsz)
    800008a6:	00b67d63          	bgeu	a2,a1,800008c0 <uvmdealloc+0x26>
    800008aa:	84b2                	mv	s1,a2

  if(PGROUNDUP(newsz) < PGROUNDUP(oldsz)){
    800008ac:	6785                	lui	a5,0x1
    800008ae:	17fd                	addi	a5,a5,-1
    800008b0:	00f60733          	add	a4,a2,a5
    800008b4:	767d                	lui	a2,0xfffff
    800008b6:	8f71                	and	a4,a4,a2
    800008b8:	97ae                	add	a5,a5,a1
    800008ba:	8ff1                	and	a5,a5,a2
    800008bc:	00f76863          	bltu	a4,a5,800008cc <uvmdealloc+0x32>
    int npages = (PGROUNDUP(oldsz) - PGROUNDUP(newsz)) / PGSIZE;
    uvmunmap(pagetable, PGROUNDUP(newsz), npages, 1);
  }

  return newsz;
}
    800008c0:	8526                	mv	a0,s1
    800008c2:	60e2                	ld	ra,24(sp)
    800008c4:	6442                	ld	s0,16(sp)
    800008c6:	64a2                	ld	s1,8(sp)
    800008c8:	6105                	addi	sp,sp,32
    800008ca:	8082                	ret
    int npages = (PGROUNDUP(oldsz) - PGROUNDUP(newsz)) / PGSIZE;
    800008cc:	8f99                	sub	a5,a5,a4
    800008ce:	83b1                	srli	a5,a5,0xc
    uvmunmap(pagetable, PGROUNDUP(newsz), npages, 1);
    800008d0:	4685                	li	a3,1
    800008d2:	0007861b          	sext.w	a2,a5
    800008d6:	85ba                	mv	a1,a4
    800008d8:	00000097          	auipc	ra,0x0
    800008dc:	e5e080e7          	jalr	-418(ra) # 80000736 <uvmunmap>
    800008e0:	b7c5                	j	800008c0 <uvmdealloc+0x26>

00000000800008e2 <uvmalloc>:
  if(newsz < oldsz)
    800008e2:	0ab66563          	bltu	a2,a1,8000098c <uvmalloc+0xaa>
{
    800008e6:	7139                	addi	sp,sp,-64
    800008e8:	fc06                	sd	ra,56(sp)
    800008ea:	f822                	sd	s0,48(sp)
    800008ec:	f426                	sd	s1,40(sp)
    800008ee:	f04a                	sd	s2,32(sp)
    800008f0:	ec4e                	sd	s3,24(sp)
    800008f2:	e852                	sd	s4,16(sp)
    800008f4:	e456                	sd	s5,8(sp)
    800008f6:	e05a                	sd	s6,0(sp)
    800008f8:	0080                	addi	s0,sp,64
    800008fa:	8aaa                	mv	s5,a0
    800008fc:	8a32                	mv	s4,a2
  oldsz = PGROUNDUP(oldsz);
    800008fe:	6985                	lui	s3,0x1
    80000900:	19fd                	addi	s3,s3,-1
    80000902:	95ce                	add	a1,a1,s3
    80000904:	79fd                	lui	s3,0xfffff
    80000906:	0135f9b3          	and	s3,a1,s3
  for(a = oldsz; a < newsz; a += PGSIZE){
    8000090a:	08c9f363          	bgeu	s3,a2,80000990 <uvmalloc+0xae>
    8000090e:	894e                	mv	s2,s3
    if(mappages(pagetable, a, PGSIZE, (uint64)mem, PTE_R|PTE_U|xperm) != 0){
    80000910:	0126eb13          	ori	s6,a3,18
    mem = kalloc();
    80000914:	00000097          	auipc	ra,0x0
    80000918:	804080e7          	jalr	-2044(ra) # 80000118 <kalloc>
    8000091c:	84aa                	mv	s1,a0
    if(mem == 0){
    8000091e:	c51d                	beqz	a0,8000094c <uvmalloc+0x6a>
    memset(mem, 0, PGSIZE);
    80000920:	6605                	lui	a2,0x1
    80000922:	4581                	li	a1,0
    80000924:	00000097          	auipc	ra,0x0
    80000928:	854080e7          	jalr	-1964(ra) # 80000178 <memset>
    if(mappages(pagetable, a, PGSIZE, (uint64)mem, PTE_R|PTE_U|xperm) != 0){
    8000092c:	875a                	mv	a4,s6
    8000092e:	86a6                	mv	a3,s1
    80000930:	6605                	lui	a2,0x1
    80000932:	85ca                	mv	a1,s2
    80000934:	8556                	mv	a0,s5
    80000936:	00000097          	auipc	ra,0x0
    8000093a:	c16080e7          	jalr	-1002(ra) # 8000054c <mappages>
    8000093e:	e90d                	bnez	a0,80000970 <uvmalloc+0x8e>
  for(a = oldsz; a < newsz; a += PGSIZE){
    80000940:	6785                	lui	a5,0x1
    80000942:	993e                	add	s2,s2,a5
    80000944:	fd4968e3          	bltu	s2,s4,80000914 <uvmalloc+0x32>
  return newsz;
    80000948:	8552                	mv	a0,s4
    8000094a:	a809                	j	8000095c <uvmalloc+0x7a>
      uvmdealloc(pagetable, a, oldsz);
    8000094c:	864e                	mv	a2,s3
    8000094e:	85ca                	mv	a1,s2
    80000950:	8556                	mv	a0,s5
    80000952:	00000097          	auipc	ra,0x0
    80000956:	f48080e7          	jalr	-184(ra) # 8000089a <uvmdealloc>
      return 0;
    8000095a:	4501                	li	a0,0
}
    8000095c:	70e2                	ld	ra,56(sp)
    8000095e:	7442                	ld	s0,48(sp)
    80000960:	74a2                	ld	s1,40(sp)
    80000962:	7902                	ld	s2,32(sp)
    80000964:	69e2                	ld	s3,24(sp)
    80000966:	6a42                	ld	s4,16(sp)
    80000968:	6aa2                	ld	s5,8(sp)
    8000096a:	6b02                	ld	s6,0(sp)
    8000096c:	6121                	addi	sp,sp,64
    8000096e:	8082                	ret
      kfree(mem);
    80000970:	8526                	mv	a0,s1
    80000972:	fffff097          	auipc	ra,0xfffff
    80000976:	6aa080e7          	jalr	1706(ra) # 8000001c <kfree>
      uvmdealloc(pagetable, a, oldsz);
    8000097a:	864e                	mv	a2,s3
    8000097c:	85ca                	mv	a1,s2
    8000097e:	8556                	mv	a0,s5
    80000980:	00000097          	auipc	ra,0x0
    80000984:	f1a080e7          	jalr	-230(ra) # 8000089a <uvmdealloc>
      return 0;
    80000988:	4501                	li	a0,0
    8000098a:	bfc9                	j	8000095c <uvmalloc+0x7a>
    return oldsz;
    8000098c:	852e                	mv	a0,a1
}
    8000098e:	8082                	ret
  return newsz;
    80000990:	8532                	mv	a0,a2
    80000992:	b7e9                	j	8000095c <uvmalloc+0x7a>

0000000080000994 <freewalk>:

// Recursively free page-table pages.
// All leaf mappings must already have been removed.
void
freewalk(pagetable_t pagetable)
{
    80000994:	7179                	addi	sp,sp,-48
    80000996:	f406                	sd	ra,40(sp)
    80000998:	f022                	sd	s0,32(sp)
    8000099a:	ec26                	sd	s1,24(sp)
    8000099c:	e84a                	sd	s2,16(sp)
    8000099e:	e44e                	sd	s3,8(sp)
    800009a0:	e052                	sd	s4,0(sp)
    800009a2:	1800                	addi	s0,sp,48
    800009a4:	8a2a                	mv	s4,a0
  // there are 2^9 = 512 PTEs in a page table.
  for(int i = 0; i < 512; i++){
    800009a6:	84aa                	mv	s1,a0
    800009a8:	6905                	lui	s2,0x1
    800009aa:	992a                	add	s2,s2,a0
    pte_t pte = pagetable[i];
    if((pte & PTE_V) && (pte & (PTE_R|PTE_W|PTE_X)) == 0){
    800009ac:	4985                	li	s3,1
    800009ae:	a821                	j	800009c6 <freewalk+0x32>
      // this PTE points to a lower-level page table.
      uint64 child = PTE2PA(pte);
    800009b0:	8129                	srli	a0,a0,0xa
      freewalk((pagetable_t)child);
    800009b2:	0532                	slli	a0,a0,0xc
    800009b4:	00000097          	auipc	ra,0x0
    800009b8:	fe0080e7          	jalr	-32(ra) # 80000994 <freewalk>
      pagetable[i] = 0;
    800009bc:	0004b023          	sd	zero,0(s1)
  for(int i = 0; i < 512; i++){
    800009c0:	04a1                	addi	s1,s1,8
    800009c2:	03248163          	beq	s1,s2,800009e4 <freewalk+0x50>
    pte_t pte = pagetable[i];
    800009c6:	6088                	ld	a0,0(s1)
    if((pte & PTE_V) && (pte & (PTE_R|PTE_W|PTE_X)) == 0){
    800009c8:	00f57793          	andi	a5,a0,15
    800009cc:	ff3782e3          	beq	a5,s3,800009b0 <freewalk+0x1c>
    } else if(pte & PTE_V){
    800009d0:	8905                	andi	a0,a0,1
    800009d2:	d57d                	beqz	a0,800009c0 <freewalk+0x2c>
      panic("freewalk: leaf");
    800009d4:	00007517          	auipc	a0,0x7
    800009d8:	76450513          	addi	a0,a0,1892 # 80008138 <etext+0x138>
    800009dc:	00005097          	auipc	ra,0x5
    800009e0:	4e6080e7          	jalr	1254(ra) # 80005ec2 <panic>
    }
  }
  kfree((void*)pagetable);
    800009e4:	8552                	mv	a0,s4
    800009e6:	fffff097          	auipc	ra,0xfffff
    800009ea:	636080e7          	jalr	1590(ra) # 8000001c <kfree>
}
    800009ee:	70a2                	ld	ra,40(sp)
    800009f0:	7402                	ld	s0,32(sp)
    800009f2:	64e2                	ld	s1,24(sp)
    800009f4:	6942                	ld	s2,16(sp)
    800009f6:	69a2                	ld	s3,8(sp)
    800009f8:	6a02                	ld	s4,0(sp)
    800009fa:	6145                	addi	sp,sp,48
    800009fc:	8082                	ret

00000000800009fe <uvmfree>:

// Free user memory pages,
// then free page-table pages.
void
uvmfree(pagetable_t pagetable, uint64 sz)
{
    800009fe:	1101                	addi	sp,sp,-32
    80000a00:	ec06                	sd	ra,24(sp)
    80000a02:	e822                	sd	s0,16(sp)
    80000a04:	e426                	sd	s1,8(sp)
    80000a06:	1000                	addi	s0,sp,32
    80000a08:	84aa                	mv	s1,a0
  if(sz > 0)
    80000a0a:	e999                	bnez	a1,80000a20 <uvmfree+0x22>
    uvmunmap(pagetable, 0, PGROUNDUP(sz)/PGSIZE, 1);
  freewalk(pagetable);
    80000a0c:	8526                	mv	a0,s1
    80000a0e:	00000097          	auipc	ra,0x0
    80000a12:	f86080e7          	jalr	-122(ra) # 80000994 <freewalk>
}
    80000a16:	60e2                	ld	ra,24(sp)
    80000a18:	6442                	ld	s0,16(sp)
    80000a1a:	64a2                	ld	s1,8(sp)
    80000a1c:	6105                	addi	sp,sp,32
    80000a1e:	8082                	ret
    uvmunmap(pagetable, 0, PGROUNDUP(sz)/PGSIZE, 1);
    80000a20:	6605                	lui	a2,0x1
    80000a22:	167d                	addi	a2,a2,-1
    80000a24:	962e                	add	a2,a2,a1
    80000a26:	4685                	li	a3,1
    80000a28:	8231                	srli	a2,a2,0xc
    80000a2a:	4581                	li	a1,0
    80000a2c:	00000097          	auipc	ra,0x0
    80000a30:	d0a080e7          	jalr	-758(ra) # 80000736 <uvmunmap>
    80000a34:	bfe1                	j	80000a0c <uvmfree+0xe>

0000000080000a36 <uvmcopy>:
  pte_t *pte;
  uint64 pa, i;
  uint flags;
  char *mem;

  for(i = 0; i < sz; i += PGSIZE){
    80000a36:	c679                	beqz	a2,80000b04 <uvmcopy+0xce>
{
    80000a38:	715d                	addi	sp,sp,-80
    80000a3a:	e486                	sd	ra,72(sp)
    80000a3c:	e0a2                	sd	s0,64(sp)
    80000a3e:	fc26                	sd	s1,56(sp)
    80000a40:	f84a                	sd	s2,48(sp)
    80000a42:	f44e                	sd	s3,40(sp)
    80000a44:	f052                	sd	s4,32(sp)
    80000a46:	ec56                	sd	s5,24(sp)
    80000a48:	e85a                	sd	s6,16(sp)
    80000a4a:	e45e                	sd	s7,8(sp)
    80000a4c:	0880                	addi	s0,sp,80
    80000a4e:	8b2a                	mv	s6,a0
    80000a50:	8aae                	mv	s5,a1
    80000a52:	8a32                	mv	s4,a2
  for(i = 0; i < sz; i += PGSIZE){
    80000a54:	4981                	li	s3,0
    if((pte = walk(old, i, 0)) == 0)
    80000a56:	4601                	li	a2,0
    80000a58:	85ce                	mv	a1,s3
    80000a5a:	855a                	mv	a0,s6
    80000a5c:	00000097          	auipc	ra,0x0
    80000a60:	a08080e7          	jalr	-1528(ra) # 80000464 <walk>
    80000a64:	c531                	beqz	a0,80000ab0 <uvmcopy+0x7a>
      panic("uvmcopy: pte should exist");
    if((*pte & PTE_V) == 0)
    80000a66:	6118                	ld	a4,0(a0)
    80000a68:	00177793          	andi	a5,a4,1
    80000a6c:	cbb1                	beqz	a5,80000ac0 <uvmcopy+0x8a>
      panic("uvmcopy: page not present");
    pa = PTE2PA(*pte);
    80000a6e:	00a75593          	srli	a1,a4,0xa
    80000a72:	00c59b93          	slli	s7,a1,0xc
    flags = PTE_FLAGS(*pte);
    80000a76:	3ff77493          	andi	s1,a4,1023
    if((mem = kalloc()) == 0)
    80000a7a:	fffff097          	auipc	ra,0xfffff
    80000a7e:	69e080e7          	jalr	1694(ra) # 80000118 <kalloc>
    80000a82:	892a                	mv	s2,a0
    80000a84:	c939                	beqz	a0,80000ada <uvmcopy+0xa4>
      goto err;
    memmove(mem, (char*)pa, PGSIZE);
    80000a86:	6605                	lui	a2,0x1
    80000a88:	85de                	mv	a1,s7
    80000a8a:	fffff097          	auipc	ra,0xfffff
    80000a8e:	74e080e7          	jalr	1870(ra) # 800001d8 <memmove>
    if(mappages(new, i, PGSIZE, (uint64)mem, flags) != 0){
    80000a92:	8726                	mv	a4,s1
    80000a94:	86ca                	mv	a3,s2
    80000a96:	6605                	lui	a2,0x1
    80000a98:	85ce                	mv	a1,s3
    80000a9a:	8556                	mv	a0,s5
    80000a9c:	00000097          	auipc	ra,0x0
    80000aa0:	ab0080e7          	jalr	-1360(ra) # 8000054c <mappages>
    80000aa4:	e515                	bnez	a0,80000ad0 <uvmcopy+0x9a>
  for(i = 0; i < sz; i += PGSIZE){
    80000aa6:	6785                	lui	a5,0x1
    80000aa8:	99be                	add	s3,s3,a5
    80000aaa:	fb49e6e3          	bltu	s3,s4,80000a56 <uvmcopy+0x20>
    80000aae:	a081                	j	80000aee <uvmcopy+0xb8>
      panic("uvmcopy: pte should exist");
    80000ab0:	00007517          	auipc	a0,0x7
    80000ab4:	69850513          	addi	a0,a0,1688 # 80008148 <etext+0x148>
    80000ab8:	00005097          	auipc	ra,0x5
    80000abc:	40a080e7          	jalr	1034(ra) # 80005ec2 <panic>
      panic("uvmcopy: page not present");
    80000ac0:	00007517          	auipc	a0,0x7
    80000ac4:	6a850513          	addi	a0,a0,1704 # 80008168 <etext+0x168>
    80000ac8:	00005097          	auipc	ra,0x5
    80000acc:	3fa080e7          	jalr	1018(ra) # 80005ec2 <panic>
      kfree(mem);
    80000ad0:	854a                	mv	a0,s2
    80000ad2:	fffff097          	auipc	ra,0xfffff
    80000ad6:	54a080e7          	jalr	1354(ra) # 8000001c <kfree>
    }
  }
  return 0;

 err:
  uvmunmap(new, 0, i / PGSIZE, 1);
    80000ada:	4685                	li	a3,1
    80000adc:	00c9d613          	srli	a2,s3,0xc
    80000ae0:	4581                	li	a1,0
    80000ae2:	8556                	mv	a0,s5
    80000ae4:	00000097          	auipc	ra,0x0
    80000ae8:	c52080e7          	jalr	-942(ra) # 80000736 <uvmunmap>
  return -1;
    80000aec:	557d                	li	a0,-1
}
    80000aee:	60a6                	ld	ra,72(sp)
    80000af0:	6406                	ld	s0,64(sp)
    80000af2:	74e2                	ld	s1,56(sp)
    80000af4:	7942                	ld	s2,48(sp)
    80000af6:	79a2                	ld	s3,40(sp)
    80000af8:	7a02                	ld	s4,32(sp)
    80000afa:	6ae2                	ld	s5,24(sp)
    80000afc:	6b42                	ld	s6,16(sp)
    80000afe:	6ba2                	ld	s7,8(sp)
    80000b00:	6161                	addi	sp,sp,80
    80000b02:	8082                	ret
  return 0;
    80000b04:	4501                	li	a0,0
}
    80000b06:	8082                	ret

0000000080000b08 <uvmclear>:

// mark a PTE invalid for user access.
// used by exec for the user stack guard page.
void
uvmclear(pagetable_t pagetable, uint64 va)
{
    80000b08:	1141                	addi	sp,sp,-16
    80000b0a:	e406                	sd	ra,8(sp)
    80000b0c:	e022                	sd	s0,0(sp)
    80000b0e:	0800                	addi	s0,sp,16
  pte_t *pte;
  
  pte = walk(pagetable, va, 0);
    80000b10:	4601                	li	a2,0
    80000b12:	00000097          	auipc	ra,0x0
    80000b16:	952080e7          	jalr	-1710(ra) # 80000464 <walk>
  if(pte == 0)
    80000b1a:	c901                	beqz	a0,80000b2a <uvmclear+0x22>
    panic("uvmclear");
  *pte &= ~PTE_U;
    80000b1c:	611c                	ld	a5,0(a0)
    80000b1e:	9bbd                	andi	a5,a5,-17
    80000b20:	e11c                	sd	a5,0(a0)
}
    80000b22:	60a2                	ld	ra,8(sp)
    80000b24:	6402                	ld	s0,0(sp)
    80000b26:	0141                	addi	sp,sp,16
    80000b28:	8082                	ret
    panic("uvmclear");
    80000b2a:	00007517          	auipc	a0,0x7
    80000b2e:	65e50513          	addi	a0,a0,1630 # 80008188 <etext+0x188>
    80000b32:	00005097          	auipc	ra,0x5
    80000b36:	390080e7          	jalr	912(ra) # 80005ec2 <panic>

0000000080000b3a <copyout>:
copyout(pagetable_t pagetable, uint64 dstva, char *src, uint64 len)
{
  uint64 n, va0, pa0;
  pte_t *pte;

  while(len > 0){
    80000b3a:	cac9                	beqz	a3,80000bcc <copyout+0x92>
{
    80000b3c:	711d                	addi	sp,sp,-96
    80000b3e:	ec86                	sd	ra,88(sp)
    80000b40:	e8a2                	sd	s0,80(sp)
    80000b42:	e4a6                	sd	s1,72(sp)
    80000b44:	e0ca                	sd	s2,64(sp)
    80000b46:	fc4e                	sd	s3,56(sp)
    80000b48:	f852                	sd	s4,48(sp)
    80000b4a:	f456                	sd	s5,40(sp)
    80000b4c:	f05a                	sd	s6,32(sp)
    80000b4e:	ec5e                	sd	s7,24(sp)
    80000b50:	e862                	sd	s8,16(sp)
    80000b52:	e466                	sd	s9,8(sp)
    80000b54:	e06a                	sd	s10,0(sp)
    80000b56:	1080                	addi	s0,sp,96
    80000b58:	8baa                	mv	s7,a0
    80000b5a:	8aae                	mv	s5,a1
    80000b5c:	8b32                	mv	s6,a2
    80000b5e:	89b6                	mv	s3,a3
    va0 = PGROUNDDOWN(dstva);
    80000b60:	74fd                	lui	s1,0xfffff
    80000b62:	8ced                	and	s1,s1,a1
    if(va0 >= MAXVA)
    80000b64:	57fd                	li	a5,-1
    80000b66:	83e9                	srli	a5,a5,0x1a
    80000b68:	0697e463          	bltu	a5,s1,80000bd0 <copyout+0x96>
      return -1;
    pte = walk(pagetable, va0, 0);
    if(pte == 0 || (*pte & PTE_V) == 0 || (*pte & PTE_U) == 0 ||
    80000b6c:	4cd5                	li	s9,21
    80000b6e:	6d05                	lui	s10,0x1
    if(va0 >= MAXVA)
    80000b70:	8c3e                	mv	s8,a5
    80000b72:	a035                	j	80000b9e <copyout+0x64>
       (*pte & PTE_W) == 0)
      return -1;
    pa0 = PTE2PA(*pte);
    80000b74:	83a9                	srli	a5,a5,0xa
    80000b76:	07b2                	slli	a5,a5,0xc
    n = PGSIZE - (dstva - va0);
    if(n > len)
      n = len;
    memmove((void *)(pa0 + (dstva - va0)), src, n);
    80000b78:	409a8533          	sub	a0,s5,s1
    80000b7c:	0009061b          	sext.w	a2,s2
    80000b80:	85da                	mv	a1,s6
    80000b82:	953e                	add	a0,a0,a5
    80000b84:	fffff097          	auipc	ra,0xfffff
    80000b88:	654080e7          	jalr	1620(ra) # 800001d8 <memmove>

    len -= n;
    80000b8c:	412989b3          	sub	s3,s3,s2
    src += n;
    80000b90:	9b4a                	add	s6,s6,s2
  while(len > 0){
    80000b92:	02098b63          	beqz	s3,80000bc8 <copyout+0x8e>
    if(va0 >= MAXVA)
    80000b96:	034c6f63          	bltu	s8,s4,80000bd4 <copyout+0x9a>
    va0 = PGROUNDDOWN(dstva);
    80000b9a:	84d2                	mv	s1,s4
    dstva = va0 + PGSIZE;
    80000b9c:	8ad2                	mv	s5,s4
    pte = walk(pagetable, va0, 0);
    80000b9e:	4601                	li	a2,0
    80000ba0:	85a6                	mv	a1,s1
    80000ba2:	855e                	mv	a0,s7
    80000ba4:	00000097          	auipc	ra,0x0
    80000ba8:	8c0080e7          	jalr	-1856(ra) # 80000464 <walk>
    if(pte == 0 || (*pte & PTE_V) == 0 || (*pte & PTE_U) == 0 ||
    80000bac:	c515                	beqz	a0,80000bd8 <copyout+0x9e>
    80000bae:	611c                	ld	a5,0(a0)
    80000bb0:	0157f713          	andi	a4,a5,21
    80000bb4:	05971163          	bne	a4,s9,80000bf6 <copyout+0xbc>
    n = PGSIZE - (dstva - va0);
    80000bb8:	01a48a33          	add	s4,s1,s10
    80000bbc:	415a0933          	sub	s2,s4,s5
    if(n > len)
    80000bc0:	fb29fae3          	bgeu	s3,s2,80000b74 <copyout+0x3a>
    80000bc4:	894e                	mv	s2,s3
    80000bc6:	b77d                	j	80000b74 <copyout+0x3a>
  }
  return 0;
    80000bc8:	4501                	li	a0,0
    80000bca:	a801                	j	80000bda <copyout+0xa0>
    80000bcc:	4501                	li	a0,0
}
    80000bce:	8082                	ret
      return -1;
    80000bd0:	557d                	li	a0,-1
    80000bd2:	a021                	j	80000bda <copyout+0xa0>
    80000bd4:	557d                	li	a0,-1
    80000bd6:	a011                	j	80000bda <copyout+0xa0>
      return -1;
    80000bd8:	557d                	li	a0,-1
}
    80000bda:	60e6                	ld	ra,88(sp)
    80000bdc:	6446                	ld	s0,80(sp)
    80000bde:	64a6                	ld	s1,72(sp)
    80000be0:	6906                	ld	s2,64(sp)
    80000be2:	79e2                	ld	s3,56(sp)
    80000be4:	7a42                	ld	s4,48(sp)
    80000be6:	7aa2                	ld	s5,40(sp)
    80000be8:	7b02                	ld	s6,32(sp)
    80000bea:	6be2                	ld	s7,24(sp)
    80000bec:	6c42                	ld	s8,16(sp)
    80000bee:	6ca2                	ld	s9,8(sp)
    80000bf0:	6d02                	ld	s10,0(sp)
    80000bf2:	6125                	addi	sp,sp,96
    80000bf4:	8082                	ret
      return -1;
    80000bf6:	557d                	li	a0,-1
    80000bf8:	b7cd                	j	80000bda <copyout+0xa0>

0000000080000bfa <copyin>:
int
copyin(pagetable_t pagetable, char *dst, uint64 srcva, uint64 len)
{
  uint64 n, va0, pa0;

  while(len > 0){
    80000bfa:	c6bd                	beqz	a3,80000c68 <copyin+0x6e>
{
    80000bfc:	715d                	addi	sp,sp,-80
    80000bfe:	e486                	sd	ra,72(sp)
    80000c00:	e0a2                	sd	s0,64(sp)
    80000c02:	fc26                	sd	s1,56(sp)
    80000c04:	f84a                	sd	s2,48(sp)
    80000c06:	f44e                	sd	s3,40(sp)
    80000c08:	f052                	sd	s4,32(sp)
    80000c0a:	ec56                	sd	s5,24(sp)
    80000c0c:	e85a                	sd	s6,16(sp)
    80000c0e:	e45e                	sd	s7,8(sp)
    80000c10:	e062                	sd	s8,0(sp)
    80000c12:	0880                	addi	s0,sp,80
    80000c14:	8b2a                	mv	s6,a0
    80000c16:	8a2e                	mv	s4,a1
    80000c18:	8c32                	mv	s8,a2
    80000c1a:	89b6                	mv	s3,a3
    va0 = PGROUNDDOWN(srcva);
    80000c1c:	7bfd                	lui	s7,0xfffff
    pa0 = walkaddr(pagetable, va0);
    if(pa0 == 0)
      return -1;
    n = PGSIZE - (srcva - va0);
    80000c1e:	6a85                	lui	s5,0x1
    80000c20:	a015                	j	80000c44 <copyin+0x4a>
    if(n > len)
      n = len;
    memmove(dst, (void *)(pa0 + (srcva - va0)), n);
    80000c22:	9562                	add	a0,a0,s8
    80000c24:	0004861b          	sext.w	a2,s1
    80000c28:	412505b3          	sub	a1,a0,s2
    80000c2c:	8552                	mv	a0,s4
    80000c2e:	fffff097          	auipc	ra,0xfffff
    80000c32:	5aa080e7          	jalr	1450(ra) # 800001d8 <memmove>

    len -= n;
    80000c36:	409989b3          	sub	s3,s3,s1
    dst += n;
    80000c3a:	9a26                	add	s4,s4,s1
    srcva = va0 + PGSIZE;
    80000c3c:	01590c33          	add	s8,s2,s5
  while(len > 0){
    80000c40:	02098263          	beqz	s3,80000c64 <copyin+0x6a>
    va0 = PGROUNDDOWN(srcva);
    80000c44:	017c7933          	and	s2,s8,s7
    pa0 = walkaddr(pagetable, va0);
    80000c48:	85ca                	mv	a1,s2
    80000c4a:	855a                	mv	a0,s6
    80000c4c:	00000097          	auipc	ra,0x0
    80000c50:	8be080e7          	jalr	-1858(ra) # 8000050a <walkaddr>
    if(pa0 == 0)
    80000c54:	cd01                	beqz	a0,80000c6c <copyin+0x72>
    n = PGSIZE - (srcva - va0);
    80000c56:	418904b3          	sub	s1,s2,s8
    80000c5a:	94d6                	add	s1,s1,s5
    if(n > len)
    80000c5c:	fc99f3e3          	bgeu	s3,s1,80000c22 <copyin+0x28>
    80000c60:	84ce                	mv	s1,s3
    80000c62:	b7c1                	j	80000c22 <copyin+0x28>
  }
  return 0;
    80000c64:	4501                	li	a0,0
    80000c66:	a021                	j	80000c6e <copyin+0x74>
    80000c68:	4501                	li	a0,0
}
    80000c6a:	8082                	ret
      return -1;
    80000c6c:	557d                	li	a0,-1
}
    80000c6e:	60a6                	ld	ra,72(sp)
    80000c70:	6406                	ld	s0,64(sp)
    80000c72:	74e2                	ld	s1,56(sp)
    80000c74:	7942                	ld	s2,48(sp)
    80000c76:	79a2                	ld	s3,40(sp)
    80000c78:	7a02                	ld	s4,32(sp)
    80000c7a:	6ae2                	ld	s5,24(sp)
    80000c7c:	6b42                	ld	s6,16(sp)
    80000c7e:	6ba2                	ld	s7,8(sp)
    80000c80:	6c02                	ld	s8,0(sp)
    80000c82:	6161                	addi	sp,sp,80
    80000c84:	8082                	ret

0000000080000c86 <copyinstr>:
copyinstr(pagetable_t pagetable, char *dst, uint64 srcva, uint64 max)
{
  uint64 n, va0, pa0;
  int got_null = 0;

  while(got_null == 0 && max > 0){
    80000c86:	c6c5                	beqz	a3,80000d2e <copyinstr+0xa8>
{
    80000c88:	715d                	addi	sp,sp,-80
    80000c8a:	e486                	sd	ra,72(sp)
    80000c8c:	e0a2                	sd	s0,64(sp)
    80000c8e:	fc26                	sd	s1,56(sp)
    80000c90:	f84a                	sd	s2,48(sp)
    80000c92:	f44e                	sd	s3,40(sp)
    80000c94:	f052                	sd	s4,32(sp)
    80000c96:	ec56                	sd	s5,24(sp)
    80000c98:	e85a                	sd	s6,16(sp)
    80000c9a:	e45e                	sd	s7,8(sp)
    80000c9c:	0880                	addi	s0,sp,80
    80000c9e:	8a2a                	mv	s4,a0
    80000ca0:	8b2e                	mv	s6,a1
    80000ca2:	8bb2                	mv	s7,a2
    80000ca4:	84b6                	mv	s1,a3
    va0 = PGROUNDDOWN(srcva);
    80000ca6:	7afd                	lui	s5,0xfffff
    pa0 = walkaddr(pagetable, va0);
    if(pa0 == 0)
      return -1;
    n = PGSIZE - (srcva - va0);
    80000ca8:	6985                	lui	s3,0x1
    80000caa:	a035                	j	80000cd6 <copyinstr+0x50>
      n = max;

    char *p = (char *) (pa0 + (srcva - va0));
    while(n > 0){
      if(*p == '\0'){
        *dst = '\0';
    80000cac:	00078023          	sb	zero,0(a5) # 1000 <_entry-0x7ffff000>
    80000cb0:	4785                	li	a5,1
      dst++;
    }

    srcva = va0 + PGSIZE;
  }
  if(got_null){
    80000cb2:	0017b793          	seqz	a5,a5
    80000cb6:	40f00533          	neg	a0,a5
    return 0;
  } else {
    return -1;
  }
}
    80000cba:	60a6                	ld	ra,72(sp)
    80000cbc:	6406                	ld	s0,64(sp)
    80000cbe:	74e2                	ld	s1,56(sp)
    80000cc0:	7942                	ld	s2,48(sp)
    80000cc2:	79a2                	ld	s3,40(sp)
    80000cc4:	7a02                	ld	s4,32(sp)
    80000cc6:	6ae2                	ld	s5,24(sp)
    80000cc8:	6b42                	ld	s6,16(sp)
    80000cca:	6ba2                	ld	s7,8(sp)
    80000ccc:	6161                	addi	sp,sp,80
    80000cce:	8082                	ret
    srcva = va0 + PGSIZE;
    80000cd0:	01390bb3          	add	s7,s2,s3
  while(got_null == 0 && max > 0){
    80000cd4:	c8a9                	beqz	s1,80000d26 <copyinstr+0xa0>
    va0 = PGROUNDDOWN(srcva);
    80000cd6:	015bf933          	and	s2,s7,s5
    pa0 = walkaddr(pagetable, va0);
    80000cda:	85ca                	mv	a1,s2
    80000cdc:	8552                	mv	a0,s4
    80000cde:	00000097          	auipc	ra,0x0
    80000ce2:	82c080e7          	jalr	-2004(ra) # 8000050a <walkaddr>
    if(pa0 == 0)
    80000ce6:	c131                	beqz	a0,80000d2a <copyinstr+0xa4>
    n = PGSIZE - (srcva - va0);
    80000ce8:	41790833          	sub	a6,s2,s7
    80000cec:	984e                	add	a6,a6,s3
    if(n > max)
    80000cee:	0104f363          	bgeu	s1,a6,80000cf4 <copyinstr+0x6e>
    80000cf2:	8826                	mv	a6,s1
    char *p = (char *) (pa0 + (srcva - va0));
    80000cf4:	955e                	add	a0,a0,s7
    80000cf6:	41250533          	sub	a0,a0,s2
    while(n > 0){
    80000cfa:	fc080be3          	beqz	a6,80000cd0 <copyinstr+0x4a>
    80000cfe:	985a                	add	a6,a6,s6
    80000d00:	87da                	mv	a5,s6
      if(*p == '\0'){
    80000d02:	41650633          	sub	a2,a0,s6
    80000d06:	14fd                	addi	s1,s1,-1
    80000d08:	9b26                	add	s6,s6,s1
    80000d0a:	00f60733          	add	a4,a2,a5
    80000d0e:	00074703          	lbu	a4,0(a4)
    80000d12:	df49                	beqz	a4,80000cac <copyinstr+0x26>
        *dst = *p;
    80000d14:	00e78023          	sb	a4,0(a5)
      --max;
    80000d18:	40fb04b3          	sub	s1,s6,a5
      dst++;
    80000d1c:	0785                	addi	a5,a5,1
    while(n > 0){
    80000d1e:	ff0796e3          	bne	a5,a6,80000d0a <copyinstr+0x84>
      dst++;
    80000d22:	8b42                	mv	s6,a6
    80000d24:	b775                	j	80000cd0 <copyinstr+0x4a>
    80000d26:	4781                	li	a5,0
    80000d28:	b769                	j	80000cb2 <copyinstr+0x2c>
      return -1;
    80000d2a:	557d                	li	a0,-1
    80000d2c:	b779                	j	80000cba <copyinstr+0x34>
  int got_null = 0;
    80000d2e:	4781                	li	a5,0
  if(got_null){
    80000d30:	0017b793          	seqz	a5,a5
    80000d34:	40f00533          	neg	a0,a5
}
    80000d38:	8082                	ret

0000000080000d3a <vmprint>:

int pageDeep = 0;

void vmprint(pagetable_t pagetable){ // new!
    80000d3a:	711d                	addi	sp,sp,-96
    80000d3c:	ec86                	sd	ra,88(sp)
    80000d3e:	e8a2                	sd	s0,80(sp)
    80000d40:	e4a6                	sd	s1,72(sp)
    80000d42:	e0ca                	sd	s2,64(sp)
    80000d44:	fc4e                	sd	s3,56(sp)
    80000d46:	f852                	sd	s4,48(sp)
    80000d48:	f456                	sd	s5,40(sp)
    80000d4a:	f05a                	sd	s6,32(sp)
    80000d4c:	ec5e                	sd	s7,24(sp)
    80000d4e:	e862                	sd	s8,16(sp)
    80000d50:	e466                	sd	s9,8(sp)
    80000d52:	e06a                	sd	s10,0(sp)
    80000d54:	1080                	addi	s0,sp,96
    80000d56:	8aaa                	mv	s5,a0
  if (pageDeep == 0){
    80000d58:	00008797          	auipc	a5,0x8
    80000d5c:	c107a783          	lw	a5,-1008(a5) # 80008968 <pageDeep>
    80000d60:	c39d                	beqz	a5,80000d86 <vmprint+0x4c>
void vmprint(pagetable_t pagetable){ // new!
    80000d62:	4981                	li	s3,0
    pageDeep = 1;
  }
  for(int i = 0; i < 512; i++){
    pte_t pte = pagetable[i];
    if(pte & PTE_V){ //current page
      for(int i = 0; i < pageDeep; i++)
    80000d64:	00008a17          	auipc	s4,0x8
    80000d68:	c04a0a13          	addi	s4,s4,-1020 # 80008968 <pageDeep>
        printf("..");
      printf("%d: pte %p pa %p\n", i, pte, PTE2PA(pte));
    80000d6c:	00007c97          	auipc	s9,0x7
    80000d70:	444c8c93          	addi	s9,s9,1092 # 800081b0 <etext+0x1b0>
      for(int i = 0; i < pageDeep; i++)
    80000d74:	4d01                	li	s10,0
        printf("..");
    80000d76:	00007b17          	auipc	s6,0x7
    80000d7a:	432b0b13          	addi	s6,s6,1074 # 800081a8 <etext+0x1a8>
    }
    if((pte & PTE_V) && (pte & (PTE_R|PTE_W|PTE_X)) == 0){ //search child pages
    80000d7e:	4c05                	li	s8,1
  for(int i = 0; i < 512; i++){
    80000d80:	20000b93          	li	s7,512
    80000d84:	a091                	j	80000dc8 <vmprint+0x8e>
    printf("page table %p\n", pagetable);
    80000d86:	85aa                	mv	a1,a0
    80000d88:	00007517          	auipc	a0,0x7
    80000d8c:	41050513          	addi	a0,a0,1040 # 80008198 <etext+0x198>
    80000d90:	00005097          	auipc	ra,0x5
    80000d94:	17c080e7          	jalr	380(ra) # 80005f0c <printf>
    pageDeep = 1;
    80000d98:	4785                	li	a5,1
    80000d9a:	00008717          	auipc	a4,0x8
    80000d9e:	bcf72723          	sw	a5,-1074(a4) # 80008968 <pageDeep>
    80000da2:	b7c1                	j	80000d62 <vmprint+0x28>
      printf("%d: pte %p pa %p\n", i, pte, PTE2PA(pte));
    80000da4:	00a95693          	srli	a3,s2,0xa
    80000da8:	06b2                	slli	a3,a3,0xc
    80000daa:	864a                	mv	a2,s2
    80000dac:	85ce                	mv	a1,s3
    80000dae:	8566                	mv	a0,s9
    80000db0:	00005097          	auipc	ra,0x5
    80000db4:	15c080e7          	jalr	348(ra) # 80005f0c <printf>
    if((pte & PTE_V) && (pte & (PTE_R|PTE_W|PTE_X)) == 0){ //search child pages
    80000db8:	00f97793          	andi	a5,s2,15
    80000dbc:	03878b63          	beq	a5,s8,80000df2 <vmprint+0xb8>
  for(int i = 0; i < 512; i++){
    80000dc0:	2985                	addiw	s3,s3,1
    80000dc2:	0aa1                	addi	s5,s5,8
    80000dc4:	05798963          	beq	s3,s7,80000e16 <vmprint+0xdc>
    pte_t pte = pagetable[i];
    80000dc8:	000ab903          	ld	s2,0(s5) # fffffffffffff000 <end+0xffffffff7ffdcff0>
    if(pte & PTE_V){ //current page
    80000dcc:	00197793          	andi	a5,s2,1
    80000dd0:	d7e5                	beqz	a5,80000db8 <vmprint+0x7e>
      for(int i = 0; i < pageDeep; i++)
    80000dd2:	000a2783          	lw	a5,0(s4)
    80000dd6:	fcf057e3          	blez	a5,80000da4 <vmprint+0x6a>
    80000dda:	84ea                	mv	s1,s10
        printf("..");
    80000ddc:	855a                	mv	a0,s6
    80000dde:	00005097          	auipc	ra,0x5
    80000de2:	12e080e7          	jalr	302(ra) # 80005f0c <printf>
      for(int i = 0; i < pageDeep; i++)
    80000de6:	2485                	addiw	s1,s1,1
    80000de8:	000a2783          	lw	a5,0(s4)
    80000dec:	fef4c8e3          	blt	s1,a5,80000ddc <vmprint+0xa2>
    80000df0:	bf55                	j	80000da4 <vmprint+0x6a>
      // this PTE points to a lower-level page table.
      pageDeep++;
    80000df2:	000a2783          	lw	a5,0(s4)
    80000df6:	2785                	addiw	a5,a5,1
    80000df8:	00fa2023          	sw	a5,0(s4)
      uint64 child = PTE2PA(pte);
    80000dfc:	00a95513          	srli	a0,s2,0xa
      vmprint((pagetable_t)child); //recursive in child
    80000e00:	0532                	slli	a0,a0,0xc
    80000e02:	00000097          	auipc	ra,0x0
    80000e06:	f38080e7          	jalr	-200(ra) # 80000d3a <vmprint>
      pageDeep--;
    80000e0a:	000a2783          	lw	a5,0(s4)
    80000e0e:	37fd                	addiw	a5,a5,-1
    80000e10:	00fa2023          	sw	a5,0(s4)
    80000e14:	b775                	j	80000dc0 <vmprint+0x86>
    }
  }

}
    80000e16:	60e6                	ld	ra,88(sp)
    80000e18:	6446                	ld	s0,80(sp)
    80000e1a:	64a6                	ld	s1,72(sp)
    80000e1c:	6906                	ld	s2,64(sp)
    80000e1e:	79e2                	ld	s3,56(sp)
    80000e20:	7a42                	ld	s4,48(sp)
    80000e22:	7aa2                	ld	s5,40(sp)
    80000e24:	7b02                	ld	s6,32(sp)
    80000e26:	6be2                	ld	s7,24(sp)
    80000e28:	6c42                	ld	s8,16(sp)
    80000e2a:	6ca2                	ld	s9,8(sp)
    80000e2c:	6d02                	ld	s10,0(sp)
    80000e2e:	6125                	addi	sp,sp,96
    80000e30:	8082                	ret

0000000080000e32 <proc_mapstacks>:
// Allocate a page for each process's kernel stack.
// Map it high in memory, followed by an invalid
// guard page.
void
proc_mapstacks(pagetable_t kpgtbl)
{
    80000e32:	7139                	addi	sp,sp,-64
    80000e34:	fc06                	sd	ra,56(sp)
    80000e36:	f822                	sd	s0,48(sp)
    80000e38:	f426                	sd	s1,40(sp)
    80000e3a:	f04a                	sd	s2,32(sp)
    80000e3c:	ec4e                	sd	s3,24(sp)
    80000e3e:	e852                	sd	s4,16(sp)
    80000e40:	e456                	sd	s5,8(sp)
    80000e42:	e05a                	sd	s6,0(sp)
    80000e44:	0080                	addi	s0,sp,64
    80000e46:	89aa                	mv	s3,a0
  struct proc *p;
  
  for(p = proc; p < &proc[NPROC]; p++) {
    80000e48:	00008497          	auipc	s1,0x8
    80000e4c:	fa848493          	addi	s1,s1,-88 # 80008df0 <proc>
    char *pa = kalloc();
    if(pa == 0)
      panic("kalloc");
    uint64 va = KSTACK((int) (p - proc));
    80000e50:	8b26                	mv	s6,s1
    80000e52:	00007a97          	auipc	s5,0x7
    80000e56:	1aea8a93          	addi	s5,s5,430 # 80008000 <etext>
    80000e5a:	01000937          	lui	s2,0x1000
    80000e5e:	197d                	addi	s2,s2,-1
    80000e60:	093a                	slli	s2,s2,0xe
  for(p = proc; p < &proc[NPROC]; p++) {
    80000e62:	0000ea17          	auipc	s4,0xe
    80000e66:	b8ea0a13          	addi	s4,s4,-1138 # 8000e9f0 <tickslock>
    char *pa = kalloc();
    80000e6a:	fffff097          	auipc	ra,0xfffff
    80000e6e:	2ae080e7          	jalr	686(ra) # 80000118 <kalloc>
    80000e72:	862a                	mv	a2,a0
    if(pa == 0)
    80000e74:	c129                	beqz	a0,80000eb6 <proc_mapstacks+0x84>
    uint64 va = KSTACK((int) (p - proc));
    80000e76:	416485b3          	sub	a1,s1,s6
    80000e7a:	8591                	srai	a1,a1,0x4
    80000e7c:	000ab783          	ld	a5,0(s5)
    80000e80:	02f585b3          	mul	a1,a1,a5
    80000e84:	00d5959b          	slliw	a1,a1,0xd
    kvmmap(kpgtbl, va, (uint64)pa, PGSIZE, PTE_R | PTE_W);
    80000e88:	4719                	li	a4,6
    80000e8a:	6685                	lui	a3,0x1
    80000e8c:	40b905b3          	sub	a1,s2,a1
    80000e90:	854e                	mv	a0,s3
    80000e92:	fffff097          	auipc	ra,0xfffff
    80000e96:	77e080e7          	jalr	1918(ra) # 80000610 <kvmmap>
  for(p = proc; p < &proc[NPROC]; p++) {
    80000e9a:	17048493          	addi	s1,s1,368
    80000e9e:	fd4496e3          	bne	s1,s4,80000e6a <proc_mapstacks+0x38>
  }
}
    80000ea2:	70e2                	ld	ra,56(sp)
    80000ea4:	7442                	ld	s0,48(sp)
    80000ea6:	74a2                	ld	s1,40(sp)
    80000ea8:	7902                	ld	s2,32(sp)
    80000eaa:	69e2                	ld	s3,24(sp)
    80000eac:	6a42                	ld	s4,16(sp)
    80000eae:	6aa2                	ld	s5,8(sp)
    80000eb0:	6b02                	ld	s6,0(sp)
    80000eb2:	6121                	addi	sp,sp,64
    80000eb4:	8082                	ret
      panic("kalloc");
    80000eb6:	00007517          	auipc	a0,0x7
    80000eba:	31250513          	addi	a0,a0,786 # 800081c8 <etext+0x1c8>
    80000ebe:	00005097          	auipc	ra,0x5
    80000ec2:	004080e7          	jalr	4(ra) # 80005ec2 <panic>

0000000080000ec6 <procinit>:

// initialize the proc table.
void
procinit(void)
{
    80000ec6:	7139                	addi	sp,sp,-64
    80000ec8:	fc06                	sd	ra,56(sp)
    80000eca:	f822                	sd	s0,48(sp)
    80000ecc:	f426                	sd	s1,40(sp)
    80000ece:	f04a                	sd	s2,32(sp)
    80000ed0:	ec4e                	sd	s3,24(sp)
    80000ed2:	e852                	sd	s4,16(sp)
    80000ed4:	e456                	sd	s5,8(sp)
    80000ed6:	e05a                	sd	s6,0(sp)
    80000ed8:	0080                	addi	s0,sp,64
  struct proc *p;
  
  initlock(&pid_lock, "nextpid");
    80000eda:	00007597          	auipc	a1,0x7
    80000ede:	2f658593          	addi	a1,a1,758 # 800081d0 <etext+0x1d0>
    80000ee2:	00008517          	auipc	a0,0x8
    80000ee6:	ade50513          	addi	a0,a0,-1314 # 800089c0 <pid_lock>
    80000eea:	00005097          	auipc	ra,0x5
    80000eee:	492080e7          	jalr	1170(ra) # 8000637c <initlock>
  initlock(&wait_lock, "wait_lock");
    80000ef2:	00007597          	auipc	a1,0x7
    80000ef6:	2e658593          	addi	a1,a1,742 # 800081d8 <etext+0x1d8>
    80000efa:	00008517          	auipc	a0,0x8
    80000efe:	ade50513          	addi	a0,a0,-1314 # 800089d8 <wait_lock>
    80000f02:	00005097          	auipc	ra,0x5
    80000f06:	47a080e7          	jalr	1146(ra) # 8000637c <initlock>
  for(p = proc; p < &proc[NPROC]; p++) {
    80000f0a:	00008497          	auipc	s1,0x8
    80000f0e:	ee648493          	addi	s1,s1,-282 # 80008df0 <proc>
      initlock(&p->lock, "proc");
    80000f12:	00007b17          	auipc	s6,0x7
    80000f16:	2d6b0b13          	addi	s6,s6,726 # 800081e8 <etext+0x1e8>
      p->state = UNUSED;
      p->kstack = KSTACK((int) (p - proc));
    80000f1a:	8aa6                	mv	s5,s1
    80000f1c:	00007a17          	auipc	s4,0x7
    80000f20:	0e4a0a13          	addi	s4,s4,228 # 80008000 <etext>
    80000f24:	01000937          	lui	s2,0x1000
    80000f28:	197d                	addi	s2,s2,-1
    80000f2a:	093a                	slli	s2,s2,0xe
  for(p = proc; p < &proc[NPROC]; p++) {
    80000f2c:	0000e997          	auipc	s3,0xe
    80000f30:	ac498993          	addi	s3,s3,-1340 # 8000e9f0 <tickslock>
      initlock(&p->lock, "proc");
    80000f34:	85da                	mv	a1,s6
    80000f36:	8526                	mv	a0,s1
    80000f38:	00005097          	auipc	ra,0x5
    80000f3c:	444080e7          	jalr	1092(ra) # 8000637c <initlock>
      p->state = UNUSED;
    80000f40:	0004ac23          	sw	zero,24(s1)
      p->kstack = KSTACK((int) (p - proc));
    80000f44:	415487b3          	sub	a5,s1,s5
    80000f48:	8791                	srai	a5,a5,0x4
    80000f4a:	000a3703          	ld	a4,0(s4)
    80000f4e:	02e787b3          	mul	a5,a5,a4
    80000f52:	00d7979b          	slliw	a5,a5,0xd
    80000f56:	40f907b3          	sub	a5,s2,a5
    80000f5a:	e0bc                	sd	a5,64(s1)
  for(p = proc; p < &proc[NPROC]; p++) {
    80000f5c:	17048493          	addi	s1,s1,368
    80000f60:	fd349ae3          	bne	s1,s3,80000f34 <procinit+0x6e>
  }
}
    80000f64:	70e2                	ld	ra,56(sp)
    80000f66:	7442                	ld	s0,48(sp)
    80000f68:	74a2                	ld	s1,40(sp)
    80000f6a:	7902                	ld	s2,32(sp)
    80000f6c:	69e2                	ld	s3,24(sp)
    80000f6e:	6a42                	ld	s4,16(sp)
    80000f70:	6aa2                	ld	s5,8(sp)
    80000f72:	6b02                	ld	s6,0(sp)
    80000f74:	6121                	addi	sp,sp,64
    80000f76:	8082                	ret

0000000080000f78 <cpuid>:
// Must be called with interrupts disabled,
// to prevent race with process being moved
// to a different CPU.
int
cpuid()
{
    80000f78:	1141                	addi	sp,sp,-16
    80000f7a:	e422                	sd	s0,8(sp)
    80000f7c:	0800                	addi	s0,sp,16
  asm volatile("mv %0, tp" : "=r" (x) );
    80000f7e:	8512                	mv	a0,tp
  int id = r_tp();
  return id;
}
    80000f80:	2501                	sext.w	a0,a0
    80000f82:	6422                	ld	s0,8(sp)
    80000f84:	0141                	addi	sp,sp,16
    80000f86:	8082                	ret

0000000080000f88 <mycpu>:

// Return this CPU's cpu struct.
// Interrupts must be disabled.
struct cpu*
mycpu(void)
{
    80000f88:	1141                	addi	sp,sp,-16
    80000f8a:	e422                	sd	s0,8(sp)
    80000f8c:	0800                	addi	s0,sp,16
    80000f8e:	8792                	mv	a5,tp
  int id = cpuid();
  struct cpu *c = &cpus[id];
    80000f90:	2781                	sext.w	a5,a5
    80000f92:	079e                	slli	a5,a5,0x7
  return c;
}
    80000f94:	00008517          	auipc	a0,0x8
    80000f98:	a5c50513          	addi	a0,a0,-1444 # 800089f0 <cpus>
    80000f9c:	953e                	add	a0,a0,a5
    80000f9e:	6422                	ld	s0,8(sp)
    80000fa0:	0141                	addi	sp,sp,16
    80000fa2:	8082                	ret

0000000080000fa4 <myproc>:

// Return the current struct proc *, or zero if none.
struct proc*
myproc(void)
{
    80000fa4:	1101                	addi	sp,sp,-32
    80000fa6:	ec06                	sd	ra,24(sp)
    80000fa8:	e822                	sd	s0,16(sp)
    80000faa:	e426                	sd	s1,8(sp)
    80000fac:	1000                	addi	s0,sp,32
  push_off();
    80000fae:	00005097          	auipc	ra,0x5
    80000fb2:	412080e7          	jalr	1042(ra) # 800063c0 <push_off>
    80000fb6:	8792                	mv	a5,tp
  struct cpu *c = mycpu();
  struct proc *p = c->proc;
    80000fb8:	2781                	sext.w	a5,a5
    80000fba:	079e                	slli	a5,a5,0x7
    80000fbc:	00008717          	auipc	a4,0x8
    80000fc0:	a0470713          	addi	a4,a4,-1532 # 800089c0 <pid_lock>
    80000fc4:	97ba                	add	a5,a5,a4
    80000fc6:	7b84                	ld	s1,48(a5)
  pop_off();
    80000fc8:	00005097          	auipc	ra,0x5
    80000fcc:	498080e7          	jalr	1176(ra) # 80006460 <pop_off>
  return p;
}
    80000fd0:	8526                	mv	a0,s1
    80000fd2:	60e2                	ld	ra,24(sp)
    80000fd4:	6442                	ld	s0,16(sp)
    80000fd6:	64a2                	ld	s1,8(sp)
    80000fd8:	6105                	addi	sp,sp,32
    80000fda:	8082                	ret

0000000080000fdc <forkret>:

// A fork child's very first scheduling by scheduler()
// will swtch to forkret.
void
forkret(void)
{
    80000fdc:	1141                	addi	sp,sp,-16
    80000fde:	e406                	sd	ra,8(sp)
    80000fe0:	e022                	sd	s0,0(sp)
    80000fe2:	0800                	addi	s0,sp,16
  static int first = 1;

  // Still holding p->lock from scheduler.
  release(&myproc()->lock);
    80000fe4:	00000097          	auipc	ra,0x0
    80000fe8:	fc0080e7          	jalr	-64(ra) # 80000fa4 <myproc>
    80000fec:	00005097          	auipc	ra,0x5
    80000ff0:	4d4080e7          	jalr	1236(ra) # 800064c0 <release>

  if (first) {
    80000ff4:	00008797          	auipc	a5,0x8
    80000ff8:	8fc7a783          	lw	a5,-1796(a5) # 800088f0 <first.1683>
    80000ffc:	eb89                	bnez	a5,8000100e <forkret+0x32>
    first = 0;
    // ensure other cores see first=0.
    __sync_synchronize();
  }

  usertrapret();
    80000ffe:	00001097          	auipc	ra,0x1
    80001002:	d10080e7          	jalr	-752(ra) # 80001d0e <usertrapret>
}
    80001006:	60a2                	ld	ra,8(sp)
    80001008:	6402                	ld	s0,0(sp)
    8000100a:	0141                	addi	sp,sp,16
    8000100c:	8082                	ret
    fsinit(ROOTDEV);
    8000100e:	4505                	li	a0,1
    80001010:	00002097          	auipc	ra,0x2
    80001014:	b1a080e7          	jalr	-1254(ra) # 80002b2a <fsinit>
    first = 0;
    80001018:	00008797          	auipc	a5,0x8
    8000101c:	8c07ac23          	sw	zero,-1832(a5) # 800088f0 <first.1683>
    __sync_synchronize();
    80001020:	0ff0000f          	fence
    80001024:	bfe9                	j	80000ffe <forkret+0x22>

0000000080001026 <allocpid>:
{
    80001026:	1101                	addi	sp,sp,-32
    80001028:	ec06                	sd	ra,24(sp)
    8000102a:	e822                	sd	s0,16(sp)
    8000102c:	e426                	sd	s1,8(sp)
    8000102e:	e04a                	sd	s2,0(sp)
    80001030:	1000                	addi	s0,sp,32
  acquire(&pid_lock);
    80001032:	00008917          	auipc	s2,0x8
    80001036:	98e90913          	addi	s2,s2,-1650 # 800089c0 <pid_lock>
    8000103a:	854a                	mv	a0,s2
    8000103c:	00005097          	auipc	ra,0x5
    80001040:	3d0080e7          	jalr	976(ra) # 8000640c <acquire>
  pid = nextpid;
    80001044:	00008797          	auipc	a5,0x8
    80001048:	8b078793          	addi	a5,a5,-1872 # 800088f4 <nextpid>
    8000104c:	4384                	lw	s1,0(a5)
  nextpid = nextpid + 1;
    8000104e:	0014871b          	addiw	a4,s1,1
    80001052:	c398                	sw	a4,0(a5)
  release(&pid_lock);
    80001054:	854a                	mv	a0,s2
    80001056:	00005097          	auipc	ra,0x5
    8000105a:	46a080e7          	jalr	1130(ra) # 800064c0 <release>
}
    8000105e:	8526                	mv	a0,s1
    80001060:	60e2                	ld	ra,24(sp)
    80001062:	6442                	ld	s0,16(sp)
    80001064:	64a2                	ld	s1,8(sp)
    80001066:	6902                	ld	s2,0(sp)
    80001068:	6105                	addi	sp,sp,32
    8000106a:	8082                	ret

000000008000106c <proc_pagetable>:
{
    8000106c:	1101                	addi	sp,sp,-32
    8000106e:	ec06                	sd	ra,24(sp)
    80001070:	e822                	sd	s0,16(sp)
    80001072:	e426                	sd	s1,8(sp)
    80001074:	e04a                	sd	s2,0(sp)
    80001076:	1000                	addi	s0,sp,32
    80001078:	892a                	mv	s2,a0
  pagetable = uvmcreate();
    8000107a:	fffff097          	auipc	ra,0xfffff
    8000107e:	780080e7          	jalr	1920(ra) # 800007fa <uvmcreate>
    80001082:	84aa                	mv	s1,a0
  if(pagetable == 0)
    80001084:	cd39                	beqz	a0,800010e2 <proc_pagetable+0x76>
  if(mappages(pagetable, TRAMPOLINE, PGSIZE,
    80001086:	4729                	li	a4,10
    80001088:	00006697          	auipc	a3,0x6
    8000108c:	f7868693          	addi	a3,a3,-136 # 80007000 <_trampoline>
    80001090:	6605                	lui	a2,0x1
    80001092:	040005b7          	lui	a1,0x4000
    80001096:	15fd                	addi	a1,a1,-1
    80001098:	05b2                	slli	a1,a1,0xc
    8000109a:	fffff097          	auipc	ra,0xfffff
    8000109e:	4b2080e7          	jalr	1202(ra) # 8000054c <mappages>
    800010a2:	04054763          	bltz	a0,800010f0 <proc_pagetable+0x84>
  if(mappages(pagetable, TRAPFRAME, PGSIZE,
    800010a6:	4719                	li	a4,6
    800010a8:	05893683          	ld	a3,88(s2)
    800010ac:	6605                	lui	a2,0x1
    800010ae:	020005b7          	lui	a1,0x2000
    800010b2:	15fd                	addi	a1,a1,-1
    800010b4:	05b6                	slli	a1,a1,0xd
    800010b6:	8526                	mv	a0,s1
    800010b8:	fffff097          	auipc	ra,0xfffff
    800010bc:	494080e7          	jalr	1172(ra) # 8000054c <mappages>
    800010c0:	04054063          	bltz	a0,80001100 <proc_pagetable+0x94>
  if(mappages(pagetable, USYSCALL, PGSIZE,
    800010c4:	4749                	li	a4,18
    800010c6:	16893683          	ld	a3,360(s2)
    800010ca:	6605                	lui	a2,0x1
    800010cc:	040005b7          	lui	a1,0x4000
    800010d0:	15f5                	addi	a1,a1,-3
    800010d2:	05b2                	slli	a1,a1,0xc
    800010d4:	8526                	mv	a0,s1
    800010d6:	fffff097          	auipc	ra,0xfffff
    800010da:	476080e7          	jalr	1142(ra) # 8000054c <mappages>
    800010de:	04054463          	bltz	a0,80001126 <proc_pagetable+0xba>
}
    800010e2:	8526                	mv	a0,s1
    800010e4:	60e2                	ld	ra,24(sp)
    800010e6:	6442                	ld	s0,16(sp)
    800010e8:	64a2                	ld	s1,8(sp)
    800010ea:	6902                	ld	s2,0(sp)
    800010ec:	6105                	addi	sp,sp,32
    800010ee:	8082                	ret
    uvmfree(pagetable, 0);
    800010f0:	4581                	li	a1,0
    800010f2:	8526                	mv	a0,s1
    800010f4:	00000097          	auipc	ra,0x0
    800010f8:	90a080e7          	jalr	-1782(ra) # 800009fe <uvmfree>
    return 0;
    800010fc:	4481                	li	s1,0
    800010fe:	b7d5                	j	800010e2 <proc_pagetable+0x76>
    uvmunmap(pagetable, TRAMPOLINE, 1, 0);
    80001100:	4681                	li	a3,0
    80001102:	4605                	li	a2,1
    80001104:	040005b7          	lui	a1,0x4000
    80001108:	15fd                	addi	a1,a1,-1
    8000110a:	05b2                	slli	a1,a1,0xc
    8000110c:	8526                	mv	a0,s1
    8000110e:	fffff097          	auipc	ra,0xfffff
    80001112:	628080e7          	jalr	1576(ra) # 80000736 <uvmunmap>
    uvmfree(pagetable, 0);
    80001116:	4581                	li	a1,0
    80001118:	8526                	mv	a0,s1
    8000111a:	00000097          	auipc	ra,0x0
    8000111e:	8e4080e7          	jalr	-1820(ra) # 800009fe <uvmfree>
    return 0;
    80001122:	4481                	li	s1,0
    80001124:	bf7d                	j	800010e2 <proc_pagetable+0x76>
    uvmunmap(pagetable, TRAMPOLINE, 1, 0);
    80001126:	4681                	li	a3,0
    80001128:	4605                	li	a2,1
    8000112a:	040005b7          	lui	a1,0x4000
    8000112e:	15fd                	addi	a1,a1,-1
    80001130:	05b2                	slli	a1,a1,0xc
    80001132:	8526                	mv	a0,s1
    80001134:	fffff097          	auipc	ra,0xfffff
    80001138:	602080e7          	jalr	1538(ra) # 80000736 <uvmunmap>
    uvmunmap(pagetable, TRAPFRAME, 1, 0);
    8000113c:	4681                	li	a3,0
    8000113e:	4605                	li	a2,1
    80001140:	020005b7          	lui	a1,0x2000
    80001144:	15fd                	addi	a1,a1,-1
    80001146:	05b6                	slli	a1,a1,0xd
    80001148:	8526                	mv	a0,s1
    8000114a:	fffff097          	auipc	ra,0xfffff
    8000114e:	5ec080e7          	jalr	1516(ra) # 80000736 <uvmunmap>
    uvmfree(pagetable, 0);
    80001152:	4581                	li	a1,0
    80001154:	8526                	mv	a0,s1
    80001156:	00000097          	auipc	ra,0x0
    8000115a:	8a8080e7          	jalr	-1880(ra) # 800009fe <uvmfree>
    return 0;
    8000115e:	4481                	li	s1,0
    80001160:	b749                	j	800010e2 <proc_pagetable+0x76>

0000000080001162 <proc_freepagetable>:
{
    80001162:	7179                	addi	sp,sp,-48
    80001164:	f406                	sd	ra,40(sp)
    80001166:	f022                	sd	s0,32(sp)
    80001168:	ec26                	sd	s1,24(sp)
    8000116a:	e84a                	sd	s2,16(sp)
    8000116c:	e44e                	sd	s3,8(sp)
    8000116e:	1800                	addi	s0,sp,48
    80001170:	84aa                	mv	s1,a0
    80001172:	89ae                	mv	s3,a1
  uvmunmap(pagetable, TRAMPOLINE, 1, 0);
    80001174:	4681                	li	a3,0
    80001176:	4605                	li	a2,1
    80001178:	04000937          	lui	s2,0x4000
    8000117c:	fff90593          	addi	a1,s2,-1 # 3ffffff <_entry-0x7c000001>
    80001180:	05b2                	slli	a1,a1,0xc
    80001182:	fffff097          	auipc	ra,0xfffff
    80001186:	5b4080e7          	jalr	1460(ra) # 80000736 <uvmunmap>
  uvmunmap(pagetable, TRAPFRAME, 1, 0);
    8000118a:	4681                	li	a3,0
    8000118c:	4605                	li	a2,1
    8000118e:	020005b7          	lui	a1,0x2000
    80001192:	15fd                	addi	a1,a1,-1
    80001194:	05b6                	slli	a1,a1,0xd
    80001196:	8526                	mv	a0,s1
    80001198:	fffff097          	auipc	ra,0xfffff
    8000119c:	59e080e7          	jalr	1438(ra) # 80000736 <uvmunmap>
  uvmunmap(pagetable, USYSCALL, 1, 0);
    800011a0:	4681                	li	a3,0
    800011a2:	4605                	li	a2,1
    800011a4:	1975                	addi	s2,s2,-3
    800011a6:	00c91593          	slli	a1,s2,0xc
    800011aa:	8526                	mv	a0,s1
    800011ac:	fffff097          	auipc	ra,0xfffff
    800011b0:	58a080e7          	jalr	1418(ra) # 80000736 <uvmunmap>
  uvmfree(pagetable, sz);
    800011b4:	85ce                	mv	a1,s3
    800011b6:	8526                	mv	a0,s1
    800011b8:	00000097          	auipc	ra,0x0
    800011bc:	846080e7          	jalr	-1978(ra) # 800009fe <uvmfree>
}
    800011c0:	70a2                	ld	ra,40(sp)
    800011c2:	7402                	ld	s0,32(sp)
    800011c4:	64e2                	ld	s1,24(sp)
    800011c6:	6942                	ld	s2,16(sp)
    800011c8:	69a2                	ld	s3,8(sp)
    800011ca:	6145                	addi	sp,sp,48
    800011cc:	8082                	ret

00000000800011ce <freeproc>:
{
    800011ce:	1101                	addi	sp,sp,-32
    800011d0:	ec06                	sd	ra,24(sp)
    800011d2:	e822                	sd	s0,16(sp)
    800011d4:	e426                	sd	s1,8(sp)
    800011d6:	1000                	addi	s0,sp,32
    800011d8:	84aa                	mv	s1,a0
  if(p->trapframe)
    800011da:	6d28                	ld	a0,88(a0)
    800011dc:	c509                	beqz	a0,800011e6 <freeproc+0x18>
    kfree((void*)p->trapframe);
    800011de:	fffff097          	auipc	ra,0xfffff
    800011e2:	e3e080e7          	jalr	-450(ra) # 8000001c <kfree>
  p->trapframe = 0;
    800011e6:	0404bc23          	sd	zero,88(s1)
  if(p->pagetable)
    800011ea:	68a8                	ld	a0,80(s1)
    800011ec:	c511                	beqz	a0,800011f8 <freeproc+0x2a>
    proc_freepagetable(p->pagetable, p->sz);
    800011ee:	64ac                	ld	a1,72(s1)
    800011f0:	00000097          	auipc	ra,0x0
    800011f4:	f72080e7          	jalr	-142(ra) # 80001162 <proc_freepagetable>
  p->pagetable = 0;
    800011f8:	0404b823          	sd	zero,80(s1)
  p->sz = 0;
    800011fc:	0404b423          	sd	zero,72(s1)
  p->pid = 0;
    80001200:	0204a823          	sw	zero,48(s1)
  p->parent = 0;
    80001204:	0204bc23          	sd	zero,56(s1)
  p->name[0] = 0;
    80001208:	14048c23          	sb	zero,344(s1)
  p->chan = 0;
    8000120c:	0204b023          	sd	zero,32(s1)
  p->killed = 0;
    80001210:	0204a423          	sw	zero,40(s1)
  p->xstate = 0;
    80001214:	0204a623          	sw	zero,44(s1)
  p->state = UNUSED;
    80001218:	0004ac23          	sw	zero,24(s1)
  if(p->sharedpage)
    8000121c:	1684b503          	ld	a0,360(s1)
    80001220:	c509                	beqz	a0,8000122a <freeproc+0x5c>
    kfree((void *)p->sharedpage);
    80001222:	fffff097          	auipc	ra,0xfffff
    80001226:	dfa080e7          	jalr	-518(ra) # 8000001c <kfree>
  p->sharedpage = 0;
    8000122a:	1604b423          	sd	zero,360(s1)
}
    8000122e:	60e2                	ld	ra,24(sp)
    80001230:	6442                	ld	s0,16(sp)
    80001232:	64a2                	ld	s1,8(sp)
    80001234:	6105                	addi	sp,sp,32
    80001236:	8082                	ret

0000000080001238 <allocproc>:
{
    80001238:	1101                	addi	sp,sp,-32
    8000123a:	ec06                	sd	ra,24(sp)
    8000123c:	e822                	sd	s0,16(sp)
    8000123e:	e426                	sd	s1,8(sp)
    80001240:	e04a                	sd	s2,0(sp)
    80001242:	1000                	addi	s0,sp,32
  for(p = proc; p < &proc[NPROC]; p++) {
    80001244:	00008497          	auipc	s1,0x8
    80001248:	bac48493          	addi	s1,s1,-1108 # 80008df0 <proc>
    8000124c:	0000d917          	auipc	s2,0xd
    80001250:	7a490913          	addi	s2,s2,1956 # 8000e9f0 <tickslock>
    acquire(&p->lock);
    80001254:	8526                	mv	a0,s1
    80001256:	00005097          	auipc	ra,0x5
    8000125a:	1b6080e7          	jalr	438(ra) # 8000640c <acquire>
    if(p->state == UNUSED) {
    8000125e:	4c9c                	lw	a5,24(s1)
    80001260:	cf81                	beqz	a5,80001278 <allocproc+0x40>
      release(&p->lock);
    80001262:	8526                	mv	a0,s1
    80001264:	00005097          	auipc	ra,0x5
    80001268:	25c080e7          	jalr	604(ra) # 800064c0 <release>
  for(p = proc; p < &proc[NPROC]; p++) {
    8000126c:	17048493          	addi	s1,s1,368
    80001270:	ff2492e3          	bne	s1,s2,80001254 <allocproc+0x1c>
  return 0;
    80001274:	4481                	li	s1,0
    80001276:	a0ad                	j	800012e0 <allocproc+0xa8>
  p->pid = allocpid();
    80001278:	00000097          	auipc	ra,0x0
    8000127c:	dae080e7          	jalr	-594(ra) # 80001026 <allocpid>
    80001280:	d888                	sw	a0,48(s1)
  p->state = USED;
    80001282:	4785                	li	a5,1
    80001284:	cc9c                	sw	a5,24(s1)
  if((p->trapframe = (struct trapframe *)kalloc()) == 0){
    80001286:	fffff097          	auipc	ra,0xfffff
    8000128a:	e92080e7          	jalr	-366(ra) # 80000118 <kalloc>
    8000128e:	892a                	mv	s2,a0
    80001290:	eca8                	sd	a0,88(s1)
    80001292:	cd31                	beqz	a0,800012ee <allocproc+0xb6>
  if((p->sharedpage = (struct usyscall *)kalloc()) == 0){
    80001294:	fffff097          	auipc	ra,0xfffff
    80001298:	e84080e7          	jalr	-380(ra) # 80000118 <kalloc>
    8000129c:	892a                	mv	s2,a0
    8000129e:	16a4b423          	sd	a0,360(s1)
    800012a2:	c135                	beqz	a0,80001306 <allocproc+0xce>
  p->pagetable = proc_pagetable(p);
    800012a4:	8526                	mv	a0,s1
    800012a6:	00000097          	auipc	ra,0x0
    800012aa:	dc6080e7          	jalr	-570(ra) # 8000106c <proc_pagetable>
    800012ae:	892a                	mv	s2,a0
    800012b0:	e8a8                	sd	a0,80(s1)
  if(p->pagetable == 0){
    800012b2:	c535                	beqz	a0,8000131e <allocproc+0xe6>
  memset(&p->context, 0, sizeof(p->context));
    800012b4:	07000613          	li	a2,112
    800012b8:	4581                	li	a1,0
    800012ba:	06048513          	addi	a0,s1,96
    800012be:	fffff097          	auipc	ra,0xfffff
    800012c2:	eba080e7          	jalr	-326(ra) # 80000178 <memset>
  p->context.ra = (uint64)forkret;
    800012c6:	00000797          	auipc	a5,0x0
    800012ca:	d1678793          	addi	a5,a5,-746 # 80000fdc <forkret>
    800012ce:	f0bc                	sd	a5,96(s1)
  p->context.sp = p->kstack + PGSIZE;
    800012d0:	60bc                	ld	a5,64(s1)
    800012d2:	6705                	lui	a4,0x1
    800012d4:	97ba                	add	a5,a5,a4
    800012d6:	f4bc                	sd	a5,104(s1)
  p->sharedpage->pid = p->pid;
    800012d8:	1684b783          	ld	a5,360(s1)
    800012dc:	5898                	lw	a4,48(s1)
    800012de:	c398                	sw	a4,0(a5)
}
    800012e0:	8526                	mv	a0,s1
    800012e2:	60e2                	ld	ra,24(sp)
    800012e4:	6442                	ld	s0,16(sp)
    800012e6:	64a2                	ld	s1,8(sp)
    800012e8:	6902                	ld	s2,0(sp)
    800012ea:	6105                	addi	sp,sp,32
    800012ec:	8082                	ret
    freeproc(p);
    800012ee:	8526                	mv	a0,s1
    800012f0:	00000097          	auipc	ra,0x0
    800012f4:	ede080e7          	jalr	-290(ra) # 800011ce <freeproc>
    release(&p->lock);
    800012f8:	8526                	mv	a0,s1
    800012fa:	00005097          	auipc	ra,0x5
    800012fe:	1c6080e7          	jalr	454(ra) # 800064c0 <release>
    return 0;
    80001302:	84ca                	mv	s1,s2
    80001304:	bff1                	j	800012e0 <allocproc+0xa8>
    freeproc(p);
    80001306:	8526                	mv	a0,s1
    80001308:	00000097          	auipc	ra,0x0
    8000130c:	ec6080e7          	jalr	-314(ra) # 800011ce <freeproc>
    release(&p->lock);
    80001310:	8526                	mv	a0,s1
    80001312:	00005097          	auipc	ra,0x5
    80001316:	1ae080e7          	jalr	430(ra) # 800064c0 <release>
    return 0;
    8000131a:	84ca                	mv	s1,s2
    8000131c:	b7d1                	j	800012e0 <allocproc+0xa8>
    freeproc(p);
    8000131e:	8526                	mv	a0,s1
    80001320:	00000097          	auipc	ra,0x0
    80001324:	eae080e7          	jalr	-338(ra) # 800011ce <freeproc>
    release(&p->lock);
    80001328:	8526                	mv	a0,s1
    8000132a:	00005097          	auipc	ra,0x5
    8000132e:	196080e7          	jalr	406(ra) # 800064c0 <release>
    return 0;
    80001332:	84ca                	mv	s1,s2
    80001334:	b775                	j	800012e0 <allocproc+0xa8>

0000000080001336 <userinit>:
{
    80001336:	1101                	addi	sp,sp,-32
    80001338:	ec06                	sd	ra,24(sp)
    8000133a:	e822                	sd	s0,16(sp)
    8000133c:	e426                	sd	s1,8(sp)
    8000133e:	1000                	addi	s0,sp,32
  p = allocproc();
    80001340:	00000097          	auipc	ra,0x0
    80001344:	ef8080e7          	jalr	-264(ra) # 80001238 <allocproc>
    80001348:	84aa                	mv	s1,a0
  initproc = p;
    8000134a:	00007797          	auipc	a5,0x7
    8000134e:	62a7b723          	sd	a0,1582(a5) # 80008978 <initproc>
  uvmfirst(p->pagetable, initcode, sizeof(initcode));
    80001352:	03400613          	li	a2,52
    80001356:	00007597          	auipc	a1,0x7
    8000135a:	5aa58593          	addi	a1,a1,1450 # 80008900 <initcode>
    8000135e:	6928                	ld	a0,80(a0)
    80001360:	fffff097          	auipc	ra,0xfffff
    80001364:	4c8080e7          	jalr	1224(ra) # 80000828 <uvmfirst>
  p->sz = PGSIZE;
    80001368:	6785                	lui	a5,0x1
    8000136a:	e4bc                	sd	a5,72(s1)
  p->trapframe->epc = 0;      // user program counter
    8000136c:	6cb8                	ld	a4,88(s1)
    8000136e:	00073c23          	sd	zero,24(a4) # 1018 <_entry-0x7fffefe8>
  p->trapframe->sp = PGSIZE;  // user stack pointer
    80001372:	6cb8                	ld	a4,88(s1)
    80001374:	fb1c                	sd	a5,48(a4)
  safestrcpy(p->name, "initcode", sizeof(p->name));
    80001376:	4641                	li	a2,16
    80001378:	00007597          	auipc	a1,0x7
    8000137c:	e7858593          	addi	a1,a1,-392 # 800081f0 <etext+0x1f0>
    80001380:	15848513          	addi	a0,s1,344
    80001384:	fffff097          	auipc	ra,0xfffff
    80001388:	f46080e7          	jalr	-186(ra) # 800002ca <safestrcpy>
  p->cwd = namei("/");
    8000138c:	00007517          	auipc	a0,0x7
    80001390:	e7450513          	addi	a0,a0,-396 # 80008200 <etext+0x200>
    80001394:	00002097          	auipc	ra,0x2
    80001398:	1b8080e7          	jalr	440(ra) # 8000354c <namei>
    8000139c:	14a4b823          	sd	a0,336(s1)
  p->state = RUNNABLE;
    800013a0:	478d                	li	a5,3
    800013a2:	cc9c                	sw	a5,24(s1)
  release(&p->lock);
    800013a4:	8526                	mv	a0,s1
    800013a6:	00005097          	auipc	ra,0x5
    800013aa:	11a080e7          	jalr	282(ra) # 800064c0 <release>
}
    800013ae:	60e2                	ld	ra,24(sp)
    800013b0:	6442                	ld	s0,16(sp)
    800013b2:	64a2                	ld	s1,8(sp)
    800013b4:	6105                	addi	sp,sp,32
    800013b6:	8082                	ret

00000000800013b8 <growproc>:
{
    800013b8:	1101                	addi	sp,sp,-32
    800013ba:	ec06                	sd	ra,24(sp)
    800013bc:	e822                	sd	s0,16(sp)
    800013be:	e426                	sd	s1,8(sp)
    800013c0:	e04a                	sd	s2,0(sp)
    800013c2:	1000                	addi	s0,sp,32
    800013c4:	892a                	mv	s2,a0
  struct proc *p = myproc();
    800013c6:	00000097          	auipc	ra,0x0
    800013ca:	bde080e7          	jalr	-1058(ra) # 80000fa4 <myproc>
    800013ce:	84aa                	mv	s1,a0
  sz = p->sz;
    800013d0:	652c                	ld	a1,72(a0)
  if(n > 0){
    800013d2:	01204c63          	bgtz	s2,800013ea <growproc+0x32>
  } else if(n < 0){
    800013d6:	02094663          	bltz	s2,80001402 <growproc+0x4a>
  p->sz = sz;
    800013da:	e4ac                	sd	a1,72(s1)
  return 0;
    800013dc:	4501                	li	a0,0
}
    800013de:	60e2                	ld	ra,24(sp)
    800013e0:	6442                	ld	s0,16(sp)
    800013e2:	64a2                	ld	s1,8(sp)
    800013e4:	6902                	ld	s2,0(sp)
    800013e6:	6105                	addi	sp,sp,32
    800013e8:	8082                	ret
    if((sz = uvmalloc(p->pagetable, sz, sz + n, PTE_W)) == 0) {
    800013ea:	4691                	li	a3,4
    800013ec:	00b90633          	add	a2,s2,a1
    800013f0:	6928                	ld	a0,80(a0)
    800013f2:	fffff097          	auipc	ra,0xfffff
    800013f6:	4f0080e7          	jalr	1264(ra) # 800008e2 <uvmalloc>
    800013fa:	85aa                	mv	a1,a0
    800013fc:	fd79                	bnez	a0,800013da <growproc+0x22>
      return -1;
    800013fe:	557d                	li	a0,-1
    80001400:	bff9                	j	800013de <growproc+0x26>
    sz = uvmdealloc(p->pagetable, sz, sz + n);
    80001402:	00b90633          	add	a2,s2,a1
    80001406:	6928                	ld	a0,80(a0)
    80001408:	fffff097          	auipc	ra,0xfffff
    8000140c:	492080e7          	jalr	1170(ra) # 8000089a <uvmdealloc>
    80001410:	85aa                	mv	a1,a0
    80001412:	b7e1                	j	800013da <growproc+0x22>

0000000080001414 <fork>:
{
    80001414:	7179                	addi	sp,sp,-48
    80001416:	f406                	sd	ra,40(sp)
    80001418:	f022                	sd	s0,32(sp)
    8000141a:	ec26                	sd	s1,24(sp)
    8000141c:	e84a                	sd	s2,16(sp)
    8000141e:	e44e                	sd	s3,8(sp)
    80001420:	e052                	sd	s4,0(sp)
    80001422:	1800                	addi	s0,sp,48
  struct proc *p = myproc();
    80001424:	00000097          	auipc	ra,0x0
    80001428:	b80080e7          	jalr	-1152(ra) # 80000fa4 <myproc>
    8000142c:	892a                	mv	s2,a0
  if((np = allocproc()) == 0){
    8000142e:	00000097          	auipc	ra,0x0
    80001432:	e0a080e7          	jalr	-502(ra) # 80001238 <allocproc>
    80001436:	10050b63          	beqz	a0,8000154c <fork+0x138>
    8000143a:	89aa                	mv	s3,a0
  if(uvmcopy(p->pagetable, np->pagetable, p->sz) < 0){
    8000143c:	04893603          	ld	a2,72(s2)
    80001440:	692c                	ld	a1,80(a0)
    80001442:	05093503          	ld	a0,80(s2)
    80001446:	fffff097          	auipc	ra,0xfffff
    8000144a:	5f0080e7          	jalr	1520(ra) # 80000a36 <uvmcopy>
    8000144e:	04054663          	bltz	a0,8000149a <fork+0x86>
  np->sz = p->sz;
    80001452:	04893783          	ld	a5,72(s2)
    80001456:	04f9b423          	sd	a5,72(s3)
  *(np->trapframe) = *(p->trapframe);
    8000145a:	05893683          	ld	a3,88(s2)
    8000145e:	87b6                	mv	a5,a3
    80001460:	0589b703          	ld	a4,88(s3)
    80001464:	12068693          	addi	a3,a3,288
    80001468:	0007b803          	ld	a6,0(a5) # 1000 <_entry-0x7ffff000>
    8000146c:	6788                	ld	a0,8(a5)
    8000146e:	6b8c                	ld	a1,16(a5)
    80001470:	6f90                	ld	a2,24(a5)
    80001472:	01073023          	sd	a6,0(a4)
    80001476:	e708                	sd	a0,8(a4)
    80001478:	eb0c                	sd	a1,16(a4)
    8000147a:	ef10                	sd	a2,24(a4)
    8000147c:	02078793          	addi	a5,a5,32
    80001480:	02070713          	addi	a4,a4,32
    80001484:	fed792e3          	bne	a5,a3,80001468 <fork+0x54>
  np->trapframe->a0 = 0;
    80001488:	0589b783          	ld	a5,88(s3)
    8000148c:	0607b823          	sd	zero,112(a5)
    80001490:	0d000493          	li	s1,208
  for(i = 0; i < NOFILE; i++)
    80001494:	15000a13          	li	s4,336
    80001498:	a03d                	j	800014c6 <fork+0xb2>
    freeproc(np);
    8000149a:	854e                	mv	a0,s3
    8000149c:	00000097          	auipc	ra,0x0
    800014a0:	d32080e7          	jalr	-718(ra) # 800011ce <freeproc>
    release(&np->lock);
    800014a4:	854e                	mv	a0,s3
    800014a6:	00005097          	auipc	ra,0x5
    800014aa:	01a080e7          	jalr	26(ra) # 800064c0 <release>
    return -1;
    800014ae:	5a7d                	li	s4,-1
    800014b0:	a069                	j	8000153a <fork+0x126>
      np->ofile[i] = filedup(p->ofile[i]);
    800014b2:	00002097          	auipc	ra,0x2
    800014b6:	730080e7          	jalr	1840(ra) # 80003be2 <filedup>
    800014ba:	009987b3          	add	a5,s3,s1
    800014be:	e388                	sd	a0,0(a5)
  for(i = 0; i < NOFILE; i++)
    800014c0:	04a1                	addi	s1,s1,8
    800014c2:	01448763          	beq	s1,s4,800014d0 <fork+0xbc>
    if(p->ofile[i])
    800014c6:	009907b3          	add	a5,s2,s1
    800014ca:	6388                	ld	a0,0(a5)
    800014cc:	f17d                	bnez	a0,800014b2 <fork+0x9e>
    800014ce:	bfcd                	j	800014c0 <fork+0xac>
  np->cwd = idup(p->cwd);
    800014d0:	15093503          	ld	a0,336(s2)
    800014d4:	00002097          	auipc	ra,0x2
    800014d8:	894080e7          	jalr	-1900(ra) # 80002d68 <idup>
    800014dc:	14a9b823          	sd	a0,336(s3)
  safestrcpy(np->name, p->name, sizeof(p->name));
    800014e0:	4641                	li	a2,16
    800014e2:	15890593          	addi	a1,s2,344
    800014e6:	15898513          	addi	a0,s3,344
    800014ea:	fffff097          	auipc	ra,0xfffff
    800014ee:	de0080e7          	jalr	-544(ra) # 800002ca <safestrcpy>
  pid = np->pid;
    800014f2:	0309aa03          	lw	s4,48(s3)
  release(&np->lock);
    800014f6:	854e                	mv	a0,s3
    800014f8:	00005097          	auipc	ra,0x5
    800014fc:	fc8080e7          	jalr	-56(ra) # 800064c0 <release>
  acquire(&wait_lock);
    80001500:	00007497          	auipc	s1,0x7
    80001504:	4d848493          	addi	s1,s1,1240 # 800089d8 <wait_lock>
    80001508:	8526                	mv	a0,s1
    8000150a:	00005097          	auipc	ra,0x5
    8000150e:	f02080e7          	jalr	-254(ra) # 8000640c <acquire>
  np->parent = p;
    80001512:	0329bc23          	sd	s2,56(s3)
  release(&wait_lock);
    80001516:	8526                	mv	a0,s1
    80001518:	00005097          	auipc	ra,0x5
    8000151c:	fa8080e7          	jalr	-88(ra) # 800064c0 <release>
  acquire(&np->lock);
    80001520:	854e                	mv	a0,s3
    80001522:	00005097          	auipc	ra,0x5
    80001526:	eea080e7          	jalr	-278(ra) # 8000640c <acquire>
  np->state = RUNNABLE;
    8000152a:	478d                	li	a5,3
    8000152c:	00f9ac23          	sw	a5,24(s3)
  release(&np->lock);
    80001530:	854e                	mv	a0,s3
    80001532:	00005097          	auipc	ra,0x5
    80001536:	f8e080e7          	jalr	-114(ra) # 800064c0 <release>
}
    8000153a:	8552                	mv	a0,s4
    8000153c:	70a2                	ld	ra,40(sp)
    8000153e:	7402                	ld	s0,32(sp)
    80001540:	64e2                	ld	s1,24(sp)
    80001542:	6942                	ld	s2,16(sp)
    80001544:	69a2                	ld	s3,8(sp)
    80001546:	6a02                	ld	s4,0(sp)
    80001548:	6145                	addi	sp,sp,48
    8000154a:	8082                	ret
    return -1;
    8000154c:	5a7d                	li	s4,-1
    8000154e:	b7f5                	j	8000153a <fork+0x126>

0000000080001550 <scheduler>:
{
    80001550:	7139                	addi	sp,sp,-64
    80001552:	fc06                	sd	ra,56(sp)
    80001554:	f822                	sd	s0,48(sp)
    80001556:	f426                	sd	s1,40(sp)
    80001558:	f04a                	sd	s2,32(sp)
    8000155a:	ec4e                	sd	s3,24(sp)
    8000155c:	e852                	sd	s4,16(sp)
    8000155e:	e456                	sd	s5,8(sp)
    80001560:	e05a                	sd	s6,0(sp)
    80001562:	0080                	addi	s0,sp,64
    80001564:	8792                	mv	a5,tp
  int id = r_tp();
    80001566:	2781                	sext.w	a5,a5
  c->proc = 0;
    80001568:	00779a93          	slli	s5,a5,0x7
    8000156c:	00007717          	auipc	a4,0x7
    80001570:	45470713          	addi	a4,a4,1108 # 800089c0 <pid_lock>
    80001574:	9756                	add	a4,a4,s5
    80001576:	02073823          	sd	zero,48(a4)
        swtch(&c->context, &p->context);
    8000157a:	00007717          	auipc	a4,0x7
    8000157e:	47e70713          	addi	a4,a4,1150 # 800089f8 <cpus+0x8>
    80001582:	9aba                	add	s5,s5,a4
      if(p->state == RUNNABLE) {
    80001584:	498d                	li	s3,3
        p->state = RUNNING;
    80001586:	4b11                	li	s6,4
        c->proc = p;
    80001588:	079e                	slli	a5,a5,0x7
    8000158a:	00007a17          	auipc	s4,0x7
    8000158e:	436a0a13          	addi	s4,s4,1078 # 800089c0 <pid_lock>
    80001592:	9a3e                	add	s4,s4,a5
    for(p = proc; p < &proc[NPROC]; p++) {
    80001594:	0000d917          	auipc	s2,0xd
    80001598:	45c90913          	addi	s2,s2,1116 # 8000e9f0 <tickslock>
  asm volatile("csrr %0, sstatus" : "=r" (x) );
    8000159c:	100027f3          	csrr	a5,sstatus
  w_sstatus(r_sstatus() | SSTATUS_SIE);
    800015a0:	0027e793          	ori	a5,a5,2
  asm volatile("csrw sstatus, %0" : : "r" (x));
    800015a4:	10079073          	csrw	sstatus,a5
    800015a8:	00008497          	auipc	s1,0x8
    800015ac:	84848493          	addi	s1,s1,-1976 # 80008df0 <proc>
    800015b0:	a03d                	j	800015de <scheduler+0x8e>
        p->state = RUNNING;
    800015b2:	0164ac23          	sw	s6,24(s1)
        c->proc = p;
    800015b6:	029a3823          	sd	s1,48(s4)
        swtch(&c->context, &p->context);
    800015ba:	06048593          	addi	a1,s1,96
    800015be:	8556                	mv	a0,s5
    800015c0:	00000097          	auipc	ra,0x0
    800015c4:	6a4080e7          	jalr	1700(ra) # 80001c64 <swtch>
        c->proc = 0;
    800015c8:	020a3823          	sd	zero,48(s4)
      release(&p->lock);
    800015cc:	8526                	mv	a0,s1
    800015ce:	00005097          	auipc	ra,0x5
    800015d2:	ef2080e7          	jalr	-270(ra) # 800064c0 <release>
    for(p = proc; p < &proc[NPROC]; p++) {
    800015d6:	17048493          	addi	s1,s1,368
    800015da:	fd2481e3          	beq	s1,s2,8000159c <scheduler+0x4c>
      acquire(&p->lock);
    800015de:	8526                	mv	a0,s1
    800015e0:	00005097          	auipc	ra,0x5
    800015e4:	e2c080e7          	jalr	-468(ra) # 8000640c <acquire>
      if(p->state == RUNNABLE) {
    800015e8:	4c9c                	lw	a5,24(s1)
    800015ea:	ff3791e3          	bne	a5,s3,800015cc <scheduler+0x7c>
    800015ee:	b7d1                	j	800015b2 <scheduler+0x62>

00000000800015f0 <sched>:
{
    800015f0:	7179                	addi	sp,sp,-48
    800015f2:	f406                	sd	ra,40(sp)
    800015f4:	f022                	sd	s0,32(sp)
    800015f6:	ec26                	sd	s1,24(sp)
    800015f8:	e84a                	sd	s2,16(sp)
    800015fa:	e44e                	sd	s3,8(sp)
    800015fc:	1800                	addi	s0,sp,48
  struct proc *p = myproc();
    800015fe:	00000097          	auipc	ra,0x0
    80001602:	9a6080e7          	jalr	-1626(ra) # 80000fa4 <myproc>
    80001606:	84aa                	mv	s1,a0
  if(!holding(&p->lock))
    80001608:	00005097          	auipc	ra,0x5
    8000160c:	d8a080e7          	jalr	-630(ra) # 80006392 <holding>
    80001610:	c93d                	beqz	a0,80001686 <sched+0x96>
  asm volatile("mv %0, tp" : "=r" (x) );
    80001612:	8792                	mv	a5,tp
  if(mycpu()->noff != 1)
    80001614:	2781                	sext.w	a5,a5
    80001616:	079e                	slli	a5,a5,0x7
    80001618:	00007717          	auipc	a4,0x7
    8000161c:	3a870713          	addi	a4,a4,936 # 800089c0 <pid_lock>
    80001620:	97ba                	add	a5,a5,a4
    80001622:	0a87a703          	lw	a4,168(a5)
    80001626:	4785                	li	a5,1
    80001628:	06f71763          	bne	a4,a5,80001696 <sched+0xa6>
  if(p->state == RUNNING)
    8000162c:	4c98                	lw	a4,24(s1)
    8000162e:	4791                	li	a5,4
    80001630:	06f70b63          	beq	a4,a5,800016a6 <sched+0xb6>
  asm volatile("csrr %0, sstatus" : "=r" (x) );
    80001634:	100027f3          	csrr	a5,sstatus
  return (x & SSTATUS_SIE) != 0;
    80001638:	8b89                	andi	a5,a5,2
  if(intr_get())
    8000163a:	efb5                	bnez	a5,800016b6 <sched+0xc6>
  asm volatile("mv %0, tp" : "=r" (x) );
    8000163c:	8792                	mv	a5,tp
  intena = mycpu()->intena;
    8000163e:	00007917          	auipc	s2,0x7
    80001642:	38290913          	addi	s2,s2,898 # 800089c0 <pid_lock>
    80001646:	2781                	sext.w	a5,a5
    80001648:	079e                	slli	a5,a5,0x7
    8000164a:	97ca                	add	a5,a5,s2
    8000164c:	0ac7a983          	lw	s3,172(a5)
    80001650:	8792                	mv	a5,tp
  swtch(&p->context, &mycpu()->context);
    80001652:	2781                	sext.w	a5,a5
    80001654:	079e                	slli	a5,a5,0x7
    80001656:	00007597          	auipc	a1,0x7
    8000165a:	3a258593          	addi	a1,a1,930 # 800089f8 <cpus+0x8>
    8000165e:	95be                	add	a1,a1,a5
    80001660:	06048513          	addi	a0,s1,96
    80001664:	00000097          	auipc	ra,0x0
    80001668:	600080e7          	jalr	1536(ra) # 80001c64 <swtch>
    8000166c:	8792                	mv	a5,tp
  mycpu()->intena = intena;
    8000166e:	2781                	sext.w	a5,a5
    80001670:	079e                	slli	a5,a5,0x7
    80001672:	97ca                	add	a5,a5,s2
    80001674:	0b37a623          	sw	s3,172(a5)
}
    80001678:	70a2                	ld	ra,40(sp)
    8000167a:	7402                	ld	s0,32(sp)
    8000167c:	64e2                	ld	s1,24(sp)
    8000167e:	6942                	ld	s2,16(sp)
    80001680:	69a2                	ld	s3,8(sp)
    80001682:	6145                	addi	sp,sp,48
    80001684:	8082                	ret
    panic("sched p->lock");
    80001686:	00007517          	auipc	a0,0x7
    8000168a:	b8250513          	addi	a0,a0,-1150 # 80008208 <etext+0x208>
    8000168e:	00005097          	auipc	ra,0x5
    80001692:	834080e7          	jalr	-1996(ra) # 80005ec2 <panic>
    panic("sched locks");
    80001696:	00007517          	auipc	a0,0x7
    8000169a:	b8250513          	addi	a0,a0,-1150 # 80008218 <etext+0x218>
    8000169e:	00005097          	auipc	ra,0x5
    800016a2:	824080e7          	jalr	-2012(ra) # 80005ec2 <panic>
    panic("sched running");
    800016a6:	00007517          	auipc	a0,0x7
    800016aa:	b8250513          	addi	a0,a0,-1150 # 80008228 <etext+0x228>
    800016ae:	00005097          	auipc	ra,0x5
    800016b2:	814080e7          	jalr	-2028(ra) # 80005ec2 <panic>
    panic("sched interruptible");
    800016b6:	00007517          	auipc	a0,0x7
    800016ba:	b8250513          	addi	a0,a0,-1150 # 80008238 <etext+0x238>
    800016be:	00005097          	auipc	ra,0x5
    800016c2:	804080e7          	jalr	-2044(ra) # 80005ec2 <panic>

00000000800016c6 <yield>:
{
    800016c6:	1101                	addi	sp,sp,-32
    800016c8:	ec06                	sd	ra,24(sp)
    800016ca:	e822                	sd	s0,16(sp)
    800016cc:	e426                	sd	s1,8(sp)
    800016ce:	1000                	addi	s0,sp,32
  struct proc *p = myproc();
    800016d0:	00000097          	auipc	ra,0x0
    800016d4:	8d4080e7          	jalr	-1836(ra) # 80000fa4 <myproc>
    800016d8:	84aa                	mv	s1,a0
  acquire(&p->lock);
    800016da:	00005097          	auipc	ra,0x5
    800016de:	d32080e7          	jalr	-718(ra) # 8000640c <acquire>
  p->state = RUNNABLE;
    800016e2:	478d                	li	a5,3
    800016e4:	cc9c                	sw	a5,24(s1)
  sched();
    800016e6:	00000097          	auipc	ra,0x0
    800016ea:	f0a080e7          	jalr	-246(ra) # 800015f0 <sched>
  release(&p->lock);
    800016ee:	8526                	mv	a0,s1
    800016f0:	00005097          	auipc	ra,0x5
    800016f4:	dd0080e7          	jalr	-560(ra) # 800064c0 <release>
}
    800016f8:	60e2                	ld	ra,24(sp)
    800016fa:	6442                	ld	s0,16(sp)
    800016fc:	64a2                	ld	s1,8(sp)
    800016fe:	6105                	addi	sp,sp,32
    80001700:	8082                	ret

0000000080001702 <sleep>:

// Atomically release lock and sleep on chan.
// Reacquires lock when awakened.
void
sleep(void *chan, struct spinlock *lk)
{
    80001702:	7179                	addi	sp,sp,-48
    80001704:	f406                	sd	ra,40(sp)
    80001706:	f022                	sd	s0,32(sp)
    80001708:	ec26                	sd	s1,24(sp)
    8000170a:	e84a                	sd	s2,16(sp)
    8000170c:	e44e                	sd	s3,8(sp)
    8000170e:	1800                	addi	s0,sp,48
    80001710:	89aa                	mv	s3,a0
    80001712:	892e                	mv	s2,a1
  struct proc *p = myproc();
    80001714:	00000097          	auipc	ra,0x0
    80001718:	890080e7          	jalr	-1904(ra) # 80000fa4 <myproc>
    8000171c:	84aa                	mv	s1,a0
  // Once we hold p->lock, we can be
  // guaranteed that we won't miss any wakeup
  // (wakeup locks p->lock),
  // so it's okay to release lk.

  acquire(&p->lock);  //DOC: sleeplock1
    8000171e:	00005097          	auipc	ra,0x5
    80001722:	cee080e7          	jalr	-786(ra) # 8000640c <acquire>
  release(lk);
    80001726:	854a                	mv	a0,s2
    80001728:	00005097          	auipc	ra,0x5
    8000172c:	d98080e7          	jalr	-616(ra) # 800064c0 <release>

  // Go to sleep.
  p->chan = chan;
    80001730:	0334b023          	sd	s3,32(s1)
  p->state = SLEEPING;
    80001734:	4789                	li	a5,2
    80001736:	cc9c                	sw	a5,24(s1)

  sched();
    80001738:	00000097          	auipc	ra,0x0
    8000173c:	eb8080e7          	jalr	-328(ra) # 800015f0 <sched>

  // Tidy up.
  p->chan = 0;
    80001740:	0204b023          	sd	zero,32(s1)

  // Reacquire original lock.
  release(&p->lock);
    80001744:	8526                	mv	a0,s1
    80001746:	00005097          	auipc	ra,0x5
    8000174a:	d7a080e7          	jalr	-646(ra) # 800064c0 <release>
  acquire(lk);
    8000174e:	854a                	mv	a0,s2
    80001750:	00005097          	auipc	ra,0x5
    80001754:	cbc080e7          	jalr	-836(ra) # 8000640c <acquire>
}
    80001758:	70a2                	ld	ra,40(sp)
    8000175a:	7402                	ld	s0,32(sp)
    8000175c:	64e2                	ld	s1,24(sp)
    8000175e:	6942                	ld	s2,16(sp)
    80001760:	69a2                	ld	s3,8(sp)
    80001762:	6145                	addi	sp,sp,48
    80001764:	8082                	ret

0000000080001766 <wakeup>:

// Wake up all processes sleeping on chan.
// Must be called without any p->lock.
void
wakeup(void *chan)
{
    80001766:	7139                	addi	sp,sp,-64
    80001768:	fc06                	sd	ra,56(sp)
    8000176a:	f822                	sd	s0,48(sp)
    8000176c:	f426                	sd	s1,40(sp)
    8000176e:	f04a                	sd	s2,32(sp)
    80001770:	ec4e                	sd	s3,24(sp)
    80001772:	e852                	sd	s4,16(sp)
    80001774:	e456                	sd	s5,8(sp)
    80001776:	0080                	addi	s0,sp,64
    80001778:	8a2a                	mv	s4,a0
  struct proc *p;

  for(p = proc; p < &proc[NPROC]; p++) {
    8000177a:	00007497          	auipc	s1,0x7
    8000177e:	67648493          	addi	s1,s1,1654 # 80008df0 <proc>
    if(p != myproc()){
      acquire(&p->lock);
      if(p->state == SLEEPING && p->chan == chan) {
    80001782:	4989                	li	s3,2
        p->state = RUNNABLE;
    80001784:	4a8d                	li	s5,3
  for(p = proc; p < &proc[NPROC]; p++) {
    80001786:	0000d917          	auipc	s2,0xd
    8000178a:	26a90913          	addi	s2,s2,618 # 8000e9f0 <tickslock>
    8000178e:	a821                	j	800017a6 <wakeup+0x40>
        p->state = RUNNABLE;
    80001790:	0154ac23          	sw	s5,24(s1)
      }
      release(&p->lock);
    80001794:	8526                	mv	a0,s1
    80001796:	00005097          	auipc	ra,0x5
    8000179a:	d2a080e7          	jalr	-726(ra) # 800064c0 <release>
  for(p = proc; p < &proc[NPROC]; p++) {
    8000179e:	17048493          	addi	s1,s1,368
    800017a2:	03248463          	beq	s1,s2,800017ca <wakeup+0x64>
    if(p != myproc()){
    800017a6:	fffff097          	auipc	ra,0xfffff
    800017aa:	7fe080e7          	jalr	2046(ra) # 80000fa4 <myproc>
    800017ae:	fea488e3          	beq	s1,a0,8000179e <wakeup+0x38>
      acquire(&p->lock);
    800017b2:	8526                	mv	a0,s1
    800017b4:	00005097          	auipc	ra,0x5
    800017b8:	c58080e7          	jalr	-936(ra) # 8000640c <acquire>
      if(p->state == SLEEPING && p->chan == chan) {
    800017bc:	4c9c                	lw	a5,24(s1)
    800017be:	fd379be3          	bne	a5,s3,80001794 <wakeup+0x2e>
    800017c2:	709c                	ld	a5,32(s1)
    800017c4:	fd4798e3          	bne	a5,s4,80001794 <wakeup+0x2e>
    800017c8:	b7e1                	j	80001790 <wakeup+0x2a>
    }
  }
}
    800017ca:	70e2                	ld	ra,56(sp)
    800017cc:	7442                	ld	s0,48(sp)
    800017ce:	74a2                	ld	s1,40(sp)
    800017d0:	7902                	ld	s2,32(sp)
    800017d2:	69e2                	ld	s3,24(sp)
    800017d4:	6a42                	ld	s4,16(sp)
    800017d6:	6aa2                	ld	s5,8(sp)
    800017d8:	6121                	addi	sp,sp,64
    800017da:	8082                	ret

00000000800017dc <reparent>:
{
    800017dc:	7179                	addi	sp,sp,-48
    800017de:	f406                	sd	ra,40(sp)
    800017e0:	f022                	sd	s0,32(sp)
    800017e2:	ec26                	sd	s1,24(sp)
    800017e4:	e84a                	sd	s2,16(sp)
    800017e6:	e44e                	sd	s3,8(sp)
    800017e8:	e052                	sd	s4,0(sp)
    800017ea:	1800                	addi	s0,sp,48
    800017ec:	892a                	mv	s2,a0
  for(pp = proc; pp < &proc[NPROC]; pp++){
    800017ee:	00007497          	auipc	s1,0x7
    800017f2:	60248493          	addi	s1,s1,1538 # 80008df0 <proc>
      pp->parent = initproc;
    800017f6:	00007a17          	auipc	s4,0x7
    800017fa:	182a0a13          	addi	s4,s4,386 # 80008978 <initproc>
  for(pp = proc; pp < &proc[NPROC]; pp++){
    800017fe:	0000d997          	auipc	s3,0xd
    80001802:	1f298993          	addi	s3,s3,498 # 8000e9f0 <tickslock>
    80001806:	a029                	j	80001810 <reparent+0x34>
    80001808:	17048493          	addi	s1,s1,368
    8000180c:	01348d63          	beq	s1,s3,80001826 <reparent+0x4a>
    if(pp->parent == p){
    80001810:	7c9c                	ld	a5,56(s1)
    80001812:	ff279be3          	bne	a5,s2,80001808 <reparent+0x2c>
      pp->parent = initproc;
    80001816:	000a3503          	ld	a0,0(s4)
    8000181a:	fc88                	sd	a0,56(s1)
      wakeup(initproc);
    8000181c:	00000097          	auipc	ra,0x0
    80001820:	f4a080e7          	jalr	-182(ra) # 80001766 <wakeup>
    80001824:	b7d5                	j	80001808 <reparent+0x2c>
}
    80001826:	70a2                	ld	ra,40(sp)
    80001828:	7402                	ld	s0,32(sp)
    8000182a:	64e2                	ld	s1,24(sp)
    8000182c:	6942                	ld	s2,16(sp)
    8000182e:	69a2                	ld	s3,8(sp)
    80001830:	6a02                	ld	s4,0(sp)
    80001832:	6145                	addi	sp,sp,48
    80001834:	8082                	ret

0000000080001836 <exit>:
{
    80001836:	7179                	addi	sp,sp,-48
    80001838:	f406                	sd	ra,40(sp)
    8000183a:	f022                	sd	s0,32(sp)
    8000183c:	ec26                	sd	s1,24(sp)
    8000183e:	e84a                	sd	s2,16(sp)
    80001840:	e44e                	sd	s3,8(sp)
    80001842:	e052                	sd	s4,0(sp)
    80001844:	1800                	addi	s0,sp,48
    80001846:	8a2a                	mv	s4,a0
  struct proc *p = myproc();
    80001848:	fffff097          	auipc	ra,0xfffff
    8000184c:	75c080e7          	jalr	1884(ra) # 80000fa4 <myproc>
    80001850:	89aa                	mv	s3,a0
  if(p == initproc)
    80001852:	00007797          	auipc	a5,0x7
    80001856:	1267b783          	ld	a5,294(a5) # 80008978 <initproc>
    8000185a:	0d050493          	addi	s1,a0,208
    8000185e:	15050913          	addi	s2,a0,336
    80001862:	02a79363          	bne	a5,a0,80001888 <exit+0x52>
    panic("init exiting");
    80001866:	00007517          	auipc	a0,0x7
    8000186a:	9ea50513          	addi	a0,a0,-1558 # 80008250 <etext+0x250>
    8000186e:	00004097          	auipc	ra,0x4
    80001872:	654080e7          	jalr	1620(ra) # 80005ec2 <panic>
      fileclose(f);
    80001876:	00002097          	auipc	ra,0x2
    8000187a:	3be080e7          	jalr	958(ra) # 80003c34 <fileclose>
      p->ofile[fd] = 0;
    8000187e:	0004b023          	sd	zero,0(s1)
  for(int fd = 0; fd < NOFILE; fd++){
    80001882:	04a1                	addi	s1,s1,8
    80001884:	01248563          	beq	s1,s2,8000188e <exit+0x58>
    if(p->ofile[fd]){
    80001888:	6088                	ld	a0,0(s1)
    8000188a:	f575                	bnez	a0,80001876 <exit+0x40>
    8000188c:	bfdd                	j	80001882 <exit+0x4c>
  begin_op();
    8000188e:	00002097          	auipc	ra,0x2
    80001892:	eda080e7          	jalr	-294(ra) # 80003768 <begin_op>
  iput(p->cwd);
    80001896:	1509b503          	ld	a0,336(s3)
    8000189a:	00001097          	auipc	ra,0x1
    8000189e:	6c6080e7          	jalr	1734(ra) # 80002f60 <iput>
  end_op();
    800018a2:	00002097          	auipc	ra,0x2
    800018a6:	f46080e7          	jalr	-186(ra) # 800037e8 <end_op>
  p->cwd = 0;
    800018aa:	1409b823          	sd	zero,336(s3)
  acquire(&wait_lock);
    800018ae:	00007497          	auipc	s1,0x7
    800018b2:	12a48493          	addi	s1,s1,298 # 800089d8 <wait_lock>
    800018b6:	8526                	mv	a0,s1
    800018b8:	00005097          	auipc	ra,0x5
    800018bc:	b54080e7          	jalr	-1196(ra) # 8000640c <acquire>
  reparent(p);
    800018c0:	854e                	mv	a0,s3
    800018c2:	00000097          	auipc	ra,0x0
    800018c6:	f1a080e7          	jalr	-230(ra) # 800017dc <reparent>
  wakeup(p->parent);
    800018ca:	0389b503          	ld	a0,56(s3)
    800018ce:	00000097          	auipc	ra,0x0
    800018d2:	e98080e7          	jalr	-360(ra) # 80001766 <wakeup>
  acquire(&p->lock);
    800018d6:	854e                	mv	a0,s3
    800018d8:	00005097          	auipc	ra,0x5
    800018dc:	b34080e7          	jalr	-1228(ra) # 8000640c <acquire>
  p->xstate = status;
    800018e0:	0349a623          	sw	s4,44(s3)
  p->state = ZOMBIE;
    800018e4:	4795                	li	a5,5
    800018e6:	00f9ac23          	sw	a5,24(s3)
  release(&wait_lock);
    800018ea:	8526                	mv	a0,s1
    800018ec:	00005097          	auipc	ra,0x5
    800018f0:	bd4080e7          	jalr	-1068(ra) # 800064c0 <release>
  sched();
    800018f4:	00000097          	auipc	ra,0x0
    800018f8:	cfc080e7          	jalr	-772(ra) # 800015f0 <sched>
  panic("zombie exit");
    800018fc:	00007517          	auipc	a0,0x7
    80001900:	96450513          	addi	a0,a0,-1692 # 80008260 <etext+0x260>
    80001904:	00004097          	auipc	ra,0x4
    80001908:	5be080e7          	jalr	1470(ra) # 80005ec2 <panic>

000000008000190c <kill>:
// Kill the process with the given pid.
// The victim won't exit until it tries to return
// to user space (see usertrap() in trap.c).
int
kill(int pid)
{
    8000190c:	7179                	addi	sp,sp,-48
    8000190e:	f406                	sd	ra,40(sp)
    80001910:	f022                	sd	s0,32(sp)
    80001912:	ec26                	sd	s1,24(sp)
    80001914:	e84a                	sd	s2,16(sp)
    80001916:	e44e                	sd	s3,8(sp)
    80001918:	1800                	addi	s0,sp,48
    8000191a:	892a                	mv	s2,a0
  struct proc *p;

  for(p = proc; p < &proc[NPROC]; p++){
    8000191c:	00007497          	auipc	s1,0x7
    80001920:	4d448493          	addi	s1,s1,1236 # 80008df0 <proc>
    80001924:	0000d997          	auipc	s3,0xd
    80001928:	0cc98993          	addi	s3,s3,204 # 8000e9f0 <tickslock>
    acquire(&p->lock);
    8000192c:	8526                	mv	a0,s1
    8000192e:	00005097          	auipc	ra,0x5
    80001932:	ade080e7          	jalr	-1314(ra) # 8000640c <acquire>
    if(p->pid == pid){
    80001936:	589c                	lw	a5,48(s1)
    80001938:	01278d63          	beq	a5,s2,80001952 <kill+0x46>
        p->state = RUNNABLE;
      }
      release(&p->lock);
      return 0;
    }
    release(&p->lock);
    8000193c:	8526                	mv	a0,s1
    8000193e:	00005097          	auipc	ra,0x5
    80001942:	b82080e7          	jalr	-1150(ra) # 800064c0 <release>
  for(p = proc; p < &proc[NPROC]; p++){
    80001946:	17048493          	addi	s1,s1,368
    8000194a:	ff3491e3          	bne	s1,s3,8000192c <kill+0x20>
  }
  return -1;
    8000194e:	557d                	li	a0,-1
    80001950:	a829                	j	8000196a <kill+0x5e>
      p->killed = 1;
    80001952:	4785                	li	a5,1
    80001954:	d49c                	sw	a5,40(s1)
      if(p->state == SLEEPING){
    80001956:	4c98                	lw	a4,24(s1)
    80001958:	4789                	li	a5,2
    8000195a:	00f70f63          	beq	a4,a5,80001978 <kill+0x6c>
      release(&p->lock);
    8000195e:	8526                	mv	a0,s1
    80001960:	00005097          	auipc	ra,0x5
    80001964:	b60080e7          	jalr	-1184(ra) # 800064c0 <release>
      return 0;
    80001968:	4501                	li	a0,0
}
    8000196a:	70a2                	ld	ra,40(sp)
    8000196c:	7402                	ld	s0,32(sp)
    8000196e:	64e2                	ld	s1,24(sp)
    80001970:	6942                	ld	s2,16(sp)
    80001972:	69a2                	ld	s3,8(sp)
    80001974:	6145                	addi	sp,sp,48
    80001976:	8082                	ret
        p->state = RUNNABLE;
    80001978:	478d                	li	a5,3
    8000197a:	cc9c                	sw	a5,24(s1)
    8000197c:	b7cd                	j	8000195e <kill+0x52>

000000008000197e <setkilled>:

void
setkilled(struct proc *p)
{
    8000197e:	1101                	addi	sp,sp,-32
    80001980:	ec06                	sd	ra,24(sp)
    80001982:	e822                	sd	s0,16(sp)
    80001984:	e426                	sd	s1,8(sp)
    80001986:	1000                	addi	s0,sp,32
    80001988:	84aa                	mv	s1,a0
  acquire(&p->lock);
    8000198a:	00005097          	auipc	ra,0x5
    8000198e:	a82080e7          	jalr	-1406(ra) # 8000640c <acquire>
  p->killed = 1;
    80001992:	4785                	li	a5,1
    80001994:	d49c                	sw	a5,40(s1)
  release(&p->lock);
    80001996:	8526                	mv	a0,s1
    80001998:	00005097          	auipc	ra,0x5
    8000199c:	b28080e7          	jalr	-1240(ra) # 800064c0 <release>
}
    800019a0:	60e2                	ld	ra,24(sp)
    800019a2:	6442                	ld	s0,16(sp)
    800019a4:	64a2                	ld	s1,8(sp)
    800019a6:	6105                	addi	sp,sp,32
    800019a8:	8082                	ret

00000000800019aa <killed>:

int
killed(struct proc *p)
{
    800019aa:	1101                	addi	sp,sp,-32
    800019ac:	ec06                	sd	ra,24(sp)
    800019ae:	e822                	sd	s0,16(sp)
    800019b0:	e426                	sd	s1,8(sp)
    800019b2:	e04a                	sd	s2,0(sp)
    800019b4:	1000                	addi	s0,sp,32
    800019b6:	84aa                	mv	s1,a0
  int k;
  
  acquire(&p->lock);
    800019b8:	00005097          	auipc	ra,0x5
    800019bc:	a54080e7          	jalr	-1452(ra) # 8000640c <acquire>
  k = p->killed;
    800019c0:	0284a903          	lw	s2,40(s1)
  release(&p->lock);
    800019c4:	8526                	mv	a0,s1
    800019c6:	00005097          	auipc	ra,0x5
    800019ca:	afa080e7          	jalr	-1286(ra) # 800064c0 <release>
  return k;
}
    800019ce:	854a                	mv	a0,s2
    800019d0:	60e2                	ld	ra,24(sp)
    800019d2:	6442                	ld	s0,16(sp)
    800019d4:	64a2                	ld	s1,8(sp)
    800019d6:	6902                	ld	s2,0(sp)
    800019d8:	6105                	addi	sp,sp,32
    800019da:	8082                	ret

00000000800019dc <wait>:
{
    800019dc:	715d                	addi	sp,sp,-80
    800019de:	e486                	sd	ra,72(sp)
    800019e0:	e0a2                	sd	s0,64(sp)
    800019e2:	fc26                	sd	s1,56(sp)
    800019e4:	f84a                	sd	s2,48(sp)
    800019e6:	f44e                	sd	s3,40(sp)
    800019e8:	f052                	sd	s4,32(sp)
    800019ea:	ec56                	sd	s5,24(sp)
    800019ec:	e85a                	sd	s6,16(sp)
    800019ee:	e45e                	sd	s7,8(sp)
    800019f0:	e062                	sd	s8,0(sp)
    800019f2:	0880                	addi	s0,sp,80
    800019f4:	8b2a                	mv	s6,a0
  struct proc *p = myproc();
    800019f6:	fffff097          	auipc	ra,0xfffff
    800019fa:	5ae080e7          	jalr	1454(ra) # 80000fa4 <myproc>
    800019fe:	892a                	mv	s2,a0
  acquire(&wait_lock);
    80001a00:	00007517          	auipc	a0,0x7
    80001a04:	fd850513          	addi	a0,a0,-40 # 800089d8 <wait_lock>
    80001a08:	00005097          	auipc	ra,0x5
    80001a0c:	a04080e7          	jalr	-1532(ra) # 8000640c <acquire>
    havekids = 0;
    80001a10:	4b81                	li	s7,0
        if(pp->state == ZOMBIE){
    80001a12:	4a15                	li	s4,5
    for(pp = proc; pp < &proc[NPROC]; pp++){
    80001a14:	0000d997          	auipc	s3,0xd
    80001a18:	fdc98993          	addi	s3,s3,-36 # 8000e9f0 <tickslock>
        havekids = 1;
    80001a1c:	4a85                	li	s5,1
    sleep(p, &wait_lock);  //DOC: wait-sleep
    80001a1e:	00007c17          	auipc	s8,0x7
    80001a22:	fbac0c13          	addi	s8,s8,-70 # 800089d8 <wait_lock>
    havekids = 0;
    80001a26:	875e                	mv	a4,s7
    for(pp = proc; pp < &proc[NPROC]; pp++){
    80001a28:	00007497          	auipc	s1,0x7
    80001a2c:	3c848493          	addi	s1,s1,968 # 80008df0 <proc>
    80001a30:	a0bd                	j	80001a9e <wait+0xc2>
          pid = pp->pid;
    80001a32:	0304a983          	lw	s3,48(s1)
          if(addr != 0 && copyout(p->pagetable, addr, (char *)&pp->xstate,
    80001a36:	000b0e63          	beqz	s6,80001a52 <wait+0x76>
    80001a3a:	4691                	li	a3,4
    80001a3c:	02c48613          	addi	a2,s1,44
    80001a40:	85da                	mv	a1,s6
    80001a42:	05093503          	ld	a0,80(s2)
    80001a46:	fffff097          	auipc	ra,0xfffff
    80001a4a:	0f4080e7          	jalr	244(ra) # 80000b3a <copyout>
    80001a4e:	02054563          	bltz	a0,80001a78 <wait+0x9c>
          freeproc(pp);
    80001a52:	8526                	mv	a0,s1
    80001a54:	fffff097          	auipc	ra,0xfffff
    80001a58:	77a080e7          	jalr	1914(ra) # 800011ce <freeproc>
          release(&pp->lock);
    80001a5c:	8526                	mv	a0,s1
    80001a5e:	00005097          	auipc	ra,0x5
    80001a62:	a62080e7          	jalr	-1438(ra) # 800064c0 <release>
          release(&wait_lock);
    80001a66:	00007517          	auipc	a0,0x7
    80001a6a:	f7250513          	addi	a0,a0,-142 # 800089d8 <wait_lock>
    80001a6e:	00005097          	auipc	ra,0x5
    80001a72:	a52080e7          	jalr	-1454(ra) # 800064c0 <release>
          return pid;
    80001a76:	a0b5                	j	80001ae2 <wait+0x106>
            release(&pp->lock);
    80001a78:	8526                	mv	a0,s1
    80001a7a:	00005097          	auipc	ra,0x5
    80001a7e:	a46080e7          	jalr	-1466(ra) # 800064c0 <release>
            release(&wait_lock);
    80001a82:	00007517          	auipc	a0,0x7
    80001a86:	f5650513          	addi	a0,a0,-170 # 800089d8 <wait_lock>
    80001a8a:	00005097          	auipc	ra,0x5
    80001a8e:	a36080e7          	jalr	-1482(ra) # 800064c0 <release>
            return -1;
    80001a92:	59fd                	li	s3,-1
    80001a94:	a0b9                	j	80001ae2 <wait+0x106>
    for(pp = proc; pp < &proc[NPROC]; pp++){
    80001a96:	17048493          	addi	s1,s1,368
    80001a9a:	03348463          	beq	s1,s3,80001ac2 <wait+0xe6>
      if(pp->parent == p){
    80001a9e:	7c9c                	ld	a5,56(s1)
    80001aa0:	ff279be3          	bne	a5,s2,80001a96 <wait+0xba>
        acquire(&pp->lock);
    80001aa4:	8526                	mv	a0,s1
    80001aa6:	00005097          	auipc	ra,0x5
    80001aaa:	966080e7          	jalr	-1690(ra) # 8000640c <acquire>
        if(pp->state == ZOMBIE){
    80001aae:	4c9c                	lw	a5,24(s1)
    80001ab0:	f94781e3          	beq	a5,s4,80001a32 <wait+0x56>
        release(&pp->lock);
    80001ab4:	8526                	mv	a0,s1
    80001ab6:	00005097          	auipc	ra,0x5
    80001aba:	a0a080e7          	jalr	-1526(ra) # 800064c0 <release>
        havekids = 1;
    80001abe:	8756                	mv	a4,s5
    80001ac0:	bfd9                	j	80001a96 <wait+0xba>
    if(!havekids || killed(p)){
    80001ac2:	c719                	beqz	a4,80001ad0 <wait+0xf4>
    80001ac4:	854a                	mv	a0,s2
    80001ac6:	00000097          	auipc	ra,0x0
    80001aca:	ee4080e7          	jalr	-284(ra) # 800019aa <killed>
    80001ace:	c51d                	beqz	a0,80001afc <wait+0x120>
      release(&wait_lock);
    80001ad0:	00007517          	auipc	a0,0x7
    80001ad4:	f0850513          	addi	a0,a0,-248 # 800089d8 <wait_lock>
    80001ad8:	00005097          	auipc	ra,0x5
    80001adc:	9e8080e7          	jalr	-1560(ra) # 800064c0 <release>
      return -1;
    80001ae0:	59fd                	li	s3,-1
}
    80001ae2:	854e                	mv	a0,s3
    80001ae4:	60a6                	ld	ra,72(sp)
    80001ae6:	6406                	ld	s0,64(sp)
    80001ae8:	74e2                	ld	s1,56(sp)
    80001aea:	7942                	ld	s2,48(sp)
    80001aec:	79a2                	ld	s3,40(sp)
    80001aee:	7a02                	ld	s4,32(sp)
    80001af0:	6ae2                	ld	s5,24(sp)
    80001af2:	6b42                	ld	s6,16(sp)
    80001af4:	6ba2                	ld	s7,8(sp)
    80001af6:	6c02                	ld	s8,0(sp)
    80001af8:	6161                	addi	sp,sp,80
    80001afa:	8082                	ret
    sleep(p, &wait_lock);  //DOC: wait-sleep
    80001afc:	85e2                	mv	a1,s8
    80001afe:	854a                	mv	a0,s2
    80001b00:	00000097          	auipc	ra,0x0
    80001b04:	c02080e7          	jalr	-1022(ra) # 80001702 <sleep>
    havekids = 0;
    80001b08:	bf39                	j	80001a26 <wait+0x4a>

0000000080001b0a <either_copyout>:
// Copy to either a user address, or kernel address,
// depending on usr_dst.
// Returns 0 on success, -1 on error.
int
either_copyout(int user_dst, uint64 dst, void *src, uint64 len)
{
    80001b0a:	7179                	addi	sp,sp,-48
    80001b0c:	f406                	sd	ra,40(sp)
    80001b0e:	f022                	sd	s0,32(sp)
    80001b10:	ec26                	sd	s1,24(sp)
    80001b12:	e84a                	sd	s2,16(sp)
    80001b14:	e44e                	sd	s3,8(sp)
    80001b16:	e052                	sd	s4,0(sp)
    80001b18:	1800                	addi	s0,sp,48
    80001b1a:	84aa                	mv	s1,a0
    80001b1c:	892e                	mv	s2,a1
    80001b1e:	89b2                	mv	s3,a2
    80001b20:	8a36                	mv	s4,a3
  struct proc *p = myproc();
    80001b22:	fffff097          	auipc	ra,0xfffff
    80001b26:	482080e7          	jalr	1154(ra) # 80000fa4 <myproc>
  if(user_dst){
    80001b2a:	c08d                	beqz	s1,80001b4c <either_copyout+0x42>
    return copyout(p->pagetable, dst, src, len);
    80001b2c:	86d2                	mv	a3,s4
    80001b2e:	864e                	mv	a2,s3
    80001b30:	85ca                	mv	a1,s2
    80001b32:	6928                	ld	a0,80(a0)
    80001b34:	fffff097          	auipc	ra,0xfffff
    80001b38:	006080e7          	jalr	6(ra) # 80000b3a <copyout>
  } else {
    memmove((char *)dst, src, len);
    return 0;
  }
}
    80001b3c:	70a2                	ld	ra,40(sp)
    80001b3e:	7402                	ld	s0,32(sp)
    80001b40:	64e2                	ld	s1,24(sp)
    80001b42:	6942                	ld	s2,16(sp)
    80001b44:	69a2                	ld	s3,8(sp)
    80001b46:	6a02                	ld	s4,0(sp)
    80001b48:	6145                	addi	sp,sp,48
    80001b4a:	8082                	ret
    memmove((char *)dst, src, len);
    80001b4c:	000a061b          	sext.w	a2,s4
    80001b50:	85ce                	mv	a1,s3
    80001b52:	854a                	mv	a0,s2
    80001b54:	ffffe097          	auipc	ra,0xffffe
    80001b58:	684080e7          	jalr	1668(ra) # 800001d8 <memmove>
    return 0;
    80001b5c:	8526                	mv	a0,s1
    80001b5e:	bff9                	j	80001b3c <either_copyout+0x32>

0000000080001b60 <either_copyin>:
// Copy from either a user address, or kernel address,
// depending on usr_src.
// Returns 0 on success, -1 on error.
int
either_copyin(void *dst, int user_src, uint64 src, uint64 len)
{
    80001b60:	7179                	addi	sp,sp,-48
    80001b62:	f406                	sd	ra,40(sp)
    80001b64:	f022                	sd	s0,32(sp)
    80001b66:	ec26                	sd	s1,24(sp)
    80001b68:	e84a                	sd	s2,16(sp)
    80001b6a:	e44e                	sd	s3,8(sp)
    80001b6c:	e052                	sd	s4,0(sp)
    80001b6e:	1800                	addi	s0,sp,48
    80001b70:	892a                	mv	s2,a0
    80001b72:	84ae                	mv	s1,a1
    80001b74:	89b2                	mv	s3,a2
    80001b76:	8a36                	mv	s4,a3
  struct proc *p = myproc();
    80001b78:	fffff097          	auipc	ra,0xfffff
    80001b7c:	42c080e7          	jalr	1068(ra) # 80000fa4 <myproc>
  if(user_src){
    80001b80:	c08d                	beqz	s1,80001ba2 <either_copyin+0x42>
    return copyin(p->pagetable, dst, src, len);
    80001b82:	86d2                	mv	a3,s4
    80001b84:	864e                	mv	a2,s3
    80001b86:	85ca                	mv	a1,s2
    80001b88:	6928                	ld	a0,80(a0)
    80001b8a:	fffff097          	auipc	ra,0xfffff
    80001b8e:	070080e7          	jalr	112(ra) # 80000bfa <copyin>
  } else {
    memmove(dst, (char*)src, len);
    return 0;
  }
}
    80001b92:	70a2                	ld	ra,40(sp)
    80001b94:	7402                	ld	s0,32(sp)
    80001b96:	64e2                	ld	s1,24(sp)
    80001b98:	6942                	ld	s2,16(sp)
    80001b9a:	69a2                	ld	s3,8(sp)
    80001b9c:	6a02                	ld	s4,0(sp)
    80001b9e:	6145                	addi	sp,sp,48
    80001ba0:	8082                	ret
    memmove(dst, (char*)src, len);
    80001ba2:	000a061b          	sext.w	a2,s4
    80001ba6:	85ce                	mv	a1,s3
    80001ba8:	854a                	mv	a0,s2
    80001baa:	ffffe097          	auipc	ra,0xffffe
    80001bae:	62e080e7          	jalr	1582(ra) # 800001d8 <memmove>
    return 0;
    80001bb2:	8526                	mv	a0,s1
    80001bb4:	bff9                	j	80001b92 <either_copyin+0x32>

0000000080001bb6 <procdump>:
// Print a process listing to console.  For debugging.
// Runs when user types ^P on console.
// No lock to avoid wedging a stuck machine further.
void
procdump(void)
{
    80001bb6:	715d                	addi	sp,sp,-80
    80001bb8:	e486                	sd	ra,72(sp)
    80001bba:	e0a2                	sd	s0,64(sp)
    80001bbc:	fc26                	sd	s1,56(sp)
    80001bbe:	f84a                	sd	s2,48(sp)
    80001bc0:	f44e                	sd	s3,40(sp)
    80001bc2:	f052                	sd	s4,32(sp)
    80001bc4:	ec56                	sd	s5,24(sp)
    80001bc6:	e85a                	sd	s6,16(sp)
    80001bc8:	e45e                	sd	s7,8(sp)
    80001bca:	0880                	addi	s0,sp,80
  [ZOMBIE]    "zombie"
  };
  struct proc *p;
  char *state;

  printf("\n");
    80001bcc:	00006517          	auipc	a0,0x6
    80001bd0:	47c50513          	addi	a0,a0,1148 # 80008048 <etext+0x48>
    80001bd4:	00004097          	auipc	ra,0x4
    80001bd8:	338080e7          	jalr	824(ra) # 80005f0c <printf>
  for(p = proc; p < &proc[NPROC]; p++){
    80001bdc:	00007497          	auipc	s1,0x7
    80001be0:	36c48493          	addi	s1,s1,876 # 80008f48 <proc+0x158>
    80001be4:	0000d917          	auipc	s2,0xd
    80001be8:	f6490913          	addi	s2,s2,-156 # 8000eb48 <bcache+0x140>
    if(p->state == UNUSED)
      continue;
    if(p->state >= 0 && p->state < NELEM(states) && states[p->state])
    80001bec:	4b15                	li	s6,5
      state = states[p->state];
    else
      state = "???";
    80001bee:	00006997          	auipc	s3,0x6
    80001bf2:	68298993          	addi	s3,s3,1666 # 80008270 <etext+0x270>
    printf("%d %s %s", p->pid, state, p->name);
    80001bf6:	00006a97          	auipc	s5,0x6
    80001bfa:	682a8a93          	addi	s5,s5,1666 # 80008278 <etext+0x278>
    printf("\n");
    80001bfe:	00006a17          	auipc	s4,0x6
    80001c02:	44aa0a13          	addi	s4,s4,1098 # 80008048 <etext+0x48>
    if(p->state >= 0 && p->state < NELEM(states) && states[p->state])
    80001c06:	00006b97          	auipc	s7,0x6
    80001c0a:	6b2b8b93          	addi	s7,s7,1714 # 800082b8 <states.1727>
    80001c0e:	a00d                	j	80001c30 <procdump+0x7a>
    printf("%d %s %s", p->pid, state, p->name);
    80001c10:	ed86a583          	lw	a1,-296(a3)
    80001c14:	8556                	mv	a0,s5
    80001c16:	00004097          	auipc	ra,0x4
    80001c1a:	2f6080e7          	jalr	758(ra) # 80005f0c <printf>
    printf("\n");
    80001c1e:	8552                	mv	a0,s4
    80001c20:	00004097          	auipc	ra,0x4
    80001c24:	2ec080e7          	jalr	748(ra) # 80005f0c <printf>
  for(p = proc; p < &proc[NPROC]; p++){
    80001c28:	17048493          	addi	s1,s1,368
    80001c2c:	03248163          	beq	s1,s2,80001c4e <procdump+0x98>
    if(p->state == UNUSED)
    80001c30:	86a6                	mv	a3,s1
    80001c32:	ec04a783          	lw	a5,-320(s1)
    80001c36:	dbed                	beqz	a5,80001c28 <procdump+0x72>
      state = "???";
    80001c38:	864e                	mv	a2,s3
    if(p->state >= 0 && p->state < NELEM(states) && states[p->state])
    80001c3a:	fcfb6be3          	bltu	s6,a5,80001c10 <procdump+0x5a>
    80001c3e:	1782                	slli	a5,a5,0x20
    80001c40:	9381                	srli	a5,a5,0x20
    80001c42:	078e                	slli	a5,a5,0x3
    80001c44:	97de                	add	a5,a5,s7
    80001c46:	6390                	ld	a2,0(a5)
    80001c48:	f661                	bnez	a2,80001c10 <procdump+0x5a>
      state = "???";
    80001c4a:	864e                	mv	a2,s3
    80001c4c:	b7d1                	j	80001c10 <procdump+0x5a>
  }
}
    80001c4e:	60a6                	ld	ra,72(sp)
    80001c50:	6406                	ld	s0,64(sp)
    80001c52:	74e2                	ld	s1,56(sp)
    80001c54:	7942                	ld	s2,48(sp)
    80001c56:	79a2                	ld	s3,40(sp)
    80001c58:	7a02                	ld	s4,32(sp)
    80001c5a:	6ae2                	ld	s5,24(sp)
    80001c5c:	6b42                	ld	s6,16(sp)
    80001c5e:	6ba2                	ld	s7,8(sp)
    80001c60:	6161                	addi	sp,sp,80
    80001c62:	8082                	ret

0000000080001c64 <swtch>:
    80001c64:	00153023          	sd	ra,0(a0)
    80001c68:	00253423          	sd	sp,8(a0)
    80001c6c:	e900                	sd	s0,16(a0)
    80001c6e:	ed04                	sd	s1,24(a0)
    80001c70:	03253023          	sd	s2,32(a0)
    80001c74:	03353423          	sd	s3,40(a0)
    80001c78:	03453823          	sd	s4,48(a0)
    80001c7c:	03553c23          	sd	s5,56(a0)
    80001c80:	05653023          	sd	s6,64(a0)
    80001c84:	05753423          	sd	s7,72(a0)
    80001c88:	05853823          	sd	s8,80(a0)
    80001c8c:	05953c23          	sd	s9,88(a0)
    80001c90:	07a53023          	sd	s10,96(a0)
    80001c94:	07b53423          	sd	s11,104(a0)
    80001c98:	0005b083          	ld	ra,0(a1)
    80001c9c:	0085b103          	ld	sp,8(a1)
    80001ca0:	6980                	ld	s0,16(a1)
    80001ca2:	6d84                	ld	s1,24(a1)
    80001ca4:	0205b903          	ld	s2,32(a1)
    80001ca8:	0285b983          	ld	s3,40(a1)
    80001cac:	0305ba03          	ld	s4,48(a1)
    80001cb0:	0385ba83          	ld	s5,56(a1)
    80001cb4:	0405bb03          	ld	s6,64(a1)
    80001cb8:	0485bb83          	ld	s7,72(a1)
    80001cbc:	0505bc03          	ld	s8,80(a1)
    80001cc0:	0585bc83          	ld	s9,88(a1)
    80001cc4:	0605bd03          	ld	s10,96(a1)
    80001cc8:	0685bd83          	ld	s11,104(a1)
    80001ccc:	8082                	ret

0000000080001cce <trapinit>:

extern int devintr();

void
trapinit(void)
{
    80001cce:	1141                	addi	sp,sp,-16
    80001cd0:	e406                	sd	ra,8(sp)
    80001cd2:	e022                	sd	s0,0(sp)
    80001cd4:	0800                	addi	s0,sp,16
  initlock(&tickslock, "time");
    80001cd6:	00006597          	auipc	a1,0x6
    80001cda:	61258593          	addi	a1,a1,1554 # 800082e8 <states.1727+0x30>
    80001cde:	0000d517          	auipc	a0,0xd
    80001ce2:	d1250513          	addi	a0,a0,-750 # 8000e9f0 <tickslock>
    80001ce6:	00004097          	auipc	ra,0x4
    80001cea:	696080e7          	jalr	1686(ra) # 8000637c <initlock>
}
    80001cee:	60a2                	ld	ra,8(sp)
    80001cf0:	6402                	ld	s0,0(sp)
    80001cf2:	0141                	addi	sp,sp,16
    80001cf4:	8082                	ret

0000000080001cf6 <trapinithart>:

// set up to take exceptions and traps while in the kernel.
void
trapinithart(void)
{
    80001cf6:	1141                	addi	sp,sp,-16
    80001cf8:	e422                	sd	s0,8(sp)
    80001cfa:	0800                	addi	s0,sp,16
  asm volatile("csrw stvec, %0" : : "r" (x));
    80001cfc:	00003797          	auipc	a5,0x3
    80001d00:	59478793          	addi	a5,a5,1428 # 80005290 <kernelvec>
    80001d04:	10579073          	csrw	stvec,a5
  w_stvec((uint64)kernelvec);
}
    80001d08:	6422                	ld	s0,8(sp)
    80001d0a:	0141                	addi	sp,sp,16
    80001d0c:	8082                	ret

0000000080001d0e <usertrapret>:
//
// return to user space
//
void
usertrapret(void)
{
    80001d0e:	1141                	addi	sp,sp,-16
    80001d10:	e406                	sd	ra,8(sp)
    80001d12:	e022                	sd	s0,0(sp)
    80001d14:	0800                	addi	s0,sp,16
  struct proc *p = myproc();
    80001d16:	fffff097          	auipc	ra,0xfffff
    80001d1a:	28e080e7          	jalr	654(ra) # 80000fa4 <myproc>
  asm volatile("csrr %0, sstatus" : "=r" (x) );
    80001d1e:	100027f3          	csrr	a5,sstatus
  w_sstatus(r_sstatus() & ~SSTATUS_SIE);
    80001d22:	9bf5                	andi	a5,a5,-3
  asm volatile("csrw sstatus, %0" : : "r" (x));
    80001d24:	10079073          	csrw	sstatus,a5
  // kerneltrap() to usertrap(), so turn off interrupts until
  // we're back in user space, where usertrap() is correct.
  intr_off();

  // send syscalls, interrupts, and exceptions to uservec in trampoline.S
  uint64 trampoline_uservec = TRAMPOLINE + (uservec - trampoline);
    80001d28:	00005617          	auipc	a2,0x5
    80001d2c:	2d860613          	addi	a2,a2,728 # 80007000 <_trampoline>
    80001d30:	00005697          	auipc	a3,0x5
    80001d34:	2d068693          	addi	a3,a3,720 # 80007000 <_trampoline>
    80001d38:	8e91                	sub	a3,a3,a2
    80001d3a:	040007b7          	lui	a5,0x4000
    80001d3e:	17fd                	addi	a5,a5,-1
    80001d40:	07b2                	slli	a5,a5,0xc
    80001d42:	96be                	add	a3,a3,a5
  asm volatile("csrw stvec, %0" : : "r" (x));
    80001d44:	10569073          	csrw	stvec,a3
  w_stvec(trampoline_uservec);

  // set up trapframe values that uservec will need when
  // the process next traps into the kernel.
  p->trapframe->kernel_satp = r_satp();         // kernel page table
    80001d48:	6d38                	ld	a4,88(a0)
  asm volatile("csrr %0, satp" : "=r" (x) );
    80001d4a:	180026f3          	csrr	a3,satp
    80001d4e:	e314                	sd	a3,0(a4)
  p->trapframe->kernel_sp = p->kstack + PGSIZE; // process's kernel stack
    80001d50:	6d38                	ld	a4,88(a0)
    80001d52:	6134                	ld	a3,64(a0)
    80001d54:	6585                	lui	a1,0x1
    80001d56:	96ae                	add	a3,a3,a1
    80001d58:	e714                	sd	a3,8(a4)
  p->trapframe->kernel_trap = (uint64)usertrap;
    80001d5a:	6d38                	ld	a4,88(a0)
    80001d5c:	00000697          	auipc	a3,0x0
    80001d60:	13068693          	addi	a3,a3,304 # 80001e8c <usertrap>
    80001d64:	eb14                	sd	a3,16(a4)
  p->trapframe->kernel_hartid = r_tp();         // hartid for cpuid()
    80001d66:	6d38                	ld	a4,88(a0)
  asm volatile("mv %0, tp" : "=r" (x) );
    80001d68:	8692                	mv	a3,tp
    80001d6a:	f314                	sd	a3,32(a4)
  asm volatile("csrr %0, sstatus" : "=r" (x) );
    80001d6c:	100026f3          	csrr	a3,sstatus
  // set up the registers that trampoline.S's sret will use
  // to get to user space.
  
  // set S Previous Privilege mode to User.
  unsigned long x = r_sstatus();
  x &= ~SSTATUS_SPP; // clear SPP to 0 for user mode
    80001d70:	eff6f693          	andi	a3,a3,-257
  x |= SSTATUS_SPIE; // enable interrupts in user mode
    80001d74:	0206e693          	ori	a3,a3,32
  asm volatile("csrw sstatus, %0" : : "r" (x));
    80001d78:	10069073          	csrw	sstatus,a3
  w_sstatus(x);

  // set S Exception Program Counter to the saved user pc.
  w_sepc(p->trapframe->epc);
    80001d7c:	6d38                	ld	a4,88(a0)
  asm volatile("csrw sepc, %0" : : "r" (x));
    80001d7e:	6f18                	ld	a4,24(a4)
    80001d80:	14171073          	csrw	sepc,a4

  // tell trampoline.S the user page table to switch to.
  uint64 satp = MAKE_SATP(p->pagetable);
    80001d84:	6928                	ld	a0,80(a0)
    80001d86:	8131                	srli	a0,a0,0xc

  // jump to userret in trampoline.S at the top of memory, which 
  // switches to the user page table, restores user registers,
  // and switches to user mode with sret.
  uint64 trampoline_userret = TRAMPOLINE + (userret - trampoline);
    80001d88:	00005717          	auipc	a4,0x5
    80001d8c:	31470713          	addi	a4,a4,788 # 8000709c <userret>
    80001d90:	8f11                	sub	a4,a4,a2
    80001d92:	97ba                	add	a5,a5,a4
  ((void (*)(uint64))trampoline_userret)(satp);
    80001d94:	577d                	li	a4,-1
    80001d96:	177e                	slli	a4,a4,0x3f
    80001d98:	8d59                	or	a0,a0,a4
    80001d9a:	9782                	jalr	a5
}
    80001d9c:	60a2                	ld	ra,8(sp)
    80001d9e:	6402                	ld	s0,0(sp)
    80001da0:	0141                	addi	sp,sp,16
    80001da2:	8082                	ret

0000000080001da4 <clockintr>:
  w_sstatus(sstatus);
}

void
clockintr()
{
    80001da4:	1101                	addi	sp,sp,-32
    80001da6:	ec06                	sd	ra,24(sp)
    80001da8:	e822                	sd	s0,16(sp)
    80001daa:	e426                	sd	s1,8(sp)
    80001dac:	1000                	addi	s0,sp,32
  acquire(&tickslock);
    80001dae:	0000d497          	auipc	s1,0xd
    80001db2:	c4248493          	addi	s1,s1,-958 # 8000e9f0 <tickslock>
    80001db6:	8526                	mv	a0,s1
    80001db8:	00004097          	auipc	ra,0x4
    80001dbc:	654080e7          	jalr	1620(ra) # 8000640c <acquire>
  ticks++;
    80001dc0:	00007517          	auipc	a0,0x7
    80001dc4:	bc050513          	addi	a0,a0,-1088 # 80008980 <ticks>
    80001dc8:	411c                	lw	a5,0(a0)
    80001dca:	2785                	addiw	a5,a5,1
    80001dcc:	c11c                	sw	a5,0(a0)
  wakeup(&ticks);
    80001dce:	00000097          	auipc	ra,0x0
    80001dd2:	998080e7          	jalr	-1640(ra) # 80001766 <wakeup>
  release(&tickslock);
    80001dd6:	8526                	mv	a0,s1
    80001dd8:	00004097          	auipc	ra,0x4
    80001ddc:	6e8080e7          	jalr	1768(ra) # 800064c0 <release>
}
    80001de0:	60e2                	ld	ra,24(sp)
    80001de2:	6442                	ld	s0,16(sp)
    80001de4:	64a2                	ld	s1,8(sp)
    80001de6:	6105                	addi	sp,sp,32
    80001de8:	8082                	ret

0000000080001dea <devintr>:
// returns 2 if timer interrupt,
// 1 if other device,
// 0 if not recognized.
int
devintr()
{
    80001dea:	1101                	addi	sp,sp,-32
    80001dec:	ec06                	sd	ra,24(sp)
    80001dee:	e822                	sd	s0,16(sp)
    80001df0:	e426                	sd	s1,8(sp)
    80001df2:	1000                	addi	s0,sp,32
  asm volatile("csrr %0, scause" : "=r" (x) );
    80001df4:	14202773          	csrr	a4,scause
  uint64 scause = r_scause();

  if((scause & 0x8000000000000000L) &&
    80001df8:	00074d63          	bltz	a4,80001e12 <devintr+0x28>
    // now allowed to interrupt again.
    if(irq)
      plic_complete(irq);

    return 1;
  } else if(scause == 0x8000000000000001L){
    80001dfc:	57fd                	li	a5,-1
    80001dfe:	17fe                	slli	a5,a5,0x3f
    80001e00:	0785                	addi	a5,a5,1
    // the SSIP bit in sip.
    w_sip(r_sip() & ~2);

    return 2;
  } else {
    return 0;
    80001e02:	4501                	li	a0,0
  } else if(scause == 0x8000000000000001L){
    80001e04:	06f70363          	beq	a4,a5,80001e6a <devintr+0x80>
  }
}
    80001e08:	60e2                	ld	ra,24(sp)
    80001e0a:	6442                	ld	s0,16(sp)
    80001e0c:	64a2                	ld	s1,8(sp)
    80001e0e:	6105                	addi	sp,sp,32
    80001e10:	8082                	ret
     (scause & 0xff) == 9){
    80001e12:	0ff77793          	andi	a5,a4,255
  if((scause & 0x8000000000000000L) &&
    80001e16:	46a5                	li	a3,9
    80001e18:	fed792e3          	bne	a5,a3,80001dfc <devintr+0x12>
    int irq = plic_claim();
    80001e1c:	00003097          	auipc	ra,0x3
    80001e20:	57c080e7          	jalr	1404(ra) # 80005398 <plic_claim>
    80001e24:	84aa                	mv	s1,a0
    if(irq == UART0_IRQ){
    80001e26:	47a9                	li	a5,10
    80001e28:	02f50763          	beq	a0,a5,80001e56 <devintr+0x6c>
    } else if(irq == VIRTIO0_IRQ){
    80001e2c:	4785                	li	a5,1
    80001e2e:	02f50963          	beq	a0,a5,80001e60 <devintr+0x76>
    return 1;
    80001e32:	4505                	li	a0,1
    } else if(irq){
    80001e34:	d8f1                	beqz	s1,80001e08 <devintr+0x1e>
      printf("unexpected interrupt irq=%d\n", irq);
    80001e36:	85a6                	mv	a1,s1
    80001e38:	00006517          	auipc	a0,0x6
    80001e3c:	4b850513          	addi	a0,a0,1208 # 800082f0 <states.1727+0x38>
    80001e40:	00004097          	auipc	ra,0x4
    80001e44:	0cc080e7          	jalr	204(ra) # 80005f0c <printf>
      plic_complete(irq);
    80001e48:	8526                	mv	a0,s1
    80001e4a:	00003097          	auipc	ra,0x3
    80001e4e:	572080e7          	jalr	1394(ra) # 800053bc <plic_complete>
    return 1;
    80001e52:	4505                	li	a0,1
    80001e54:	bf55                	j	80001e08 <devintr+0x1e>
      uartintr();
    80001e56:	00004097          	auipc	ra,0x4
    80001e5a:	4d6080e7          	jalr	1238(ra) # 8000632c <uartintr>
    80001e5e:	b7ed                	j	80001e48 <devintr+0x5e>
      virtio_disk_intr();
    80001e60:	00004097          	auipc	ra,0x4
    80001e64:	a86080e7          	jalr	-1402(ra) # 800058e6 <virtio_disk_intr>
    80001e68:	b7c5                	j	80001e48 <devintr+0x5e>
    if(cpuid() == 0){
    80001e6a:	fffff097          	auipc	ra,0xfffff
    80001e6e:	10e080e7          	jalr	270(ra) # 80000f78 <cpuid>
    80001e72:	c901                	beqz	a0,80001e82 <devintr+0x98>
  asm volatile("csrr %0, sip" : "=r" (x) );
    80001e74:	144027f3          	csrr	a5,sip
    w_sip(r_sip() & ~2);
    80001e78:	9bf5                	andi	a5,a5,-3
  asm volatile("csrw sip, %0" : : "r" (x));
    80001e7a:	14479073          	csrw	sip,a5
    return 2;
    80001e7e:	4509                	li	a0,2
    80001e80:	b761                	j	80001e08 <devintr+0x1e>
      clockintr();
    80001e82:	00000097          	auipc	ra,0x0
    80001e86:	f22080e7          	jalr	-222(ra) # 80001da4 <clockintr>
    80001e8a:	b7ed                	j	80001e74 <devintr+0x8a>

0000000080001e8c <usertrap>:
{
    80001e8c:	1101                	addi	sp,sp,-32
    80001e8e:	ec06                	sd	ra,24(sp)
    80001e90:	e822                	sd	s0,16(sp)
    80001e92:	e426                	sd	s1,8(sp)
    80001e94:	e04a                	sd	s2,0(sp)
    80001e96:	1000                	addi	s0,sp,32
  asm volatile("csrr %0, sstatus" : "=r" (x) );
    80001e98:	100027f3          	csrr	a5,sstatus
  if((r_sstatus() & SSTATUS_SPP) != 0)
    80001e9c:	1007f793          	andi	a5,a5,256
    80001ea0:	e3b1                	bnez	a5,80001ee4 <usertrap+0x58>
  asm volatile("csrw stvec, %0" : : "r" (x));
    80001ea2:	00003797          	auipc	a5,0x3
    80001ea6:	3ee78793          	addi	a5,a5,1006 # 80005290 <kernelvec>
    80001eaa:	10579073          	csrw	stvec,a5
  struct proc *p = myproc();
    80001eae:	fffff097          	auipc	ra,0xfffff
    80001eb2:	0f6080e7          	jalr	246(ra) # 80000fa4 <myproc>
    80001eb6:	84aa                	mv	s1,a0
  p->trapframe->epc = r_sepc();
    80001eb8:	6d3c                	ld	a5,88(a0)
  asm volatile("csrr %0, sepc" : "=r" (x) );
    80001eba:	14102773          	csrr	a4,sepc
    80001ebe:	ef98                	sd	a4,24(a5)
  asm volatile("csrr %0, scause" : "=r" (x) );
    80001ec0:	14202773          	csrr	a4,scause
  if(r_scause() == 8){
    80001ec4:	47a1                	li	a5,8
    80001ec6:	02f70763          	beq	a4,a5,80001ef4 <usertrap+0x68>
  } else if((which_dev = devintr()) != 0){
    80001eca:	00000097          	auipc	ra,0x0
    80001ece:	f20080e7          	jalr	-224(ra) # 80001dea <devintr>
    80001ed2:	892a                	mv	s2,a0
    80001ed4:	c151                	beqz	a0,80001f58 <usertrap+0xcc>
  if(killed(p))
    80001ed6:	8526                	mv	a0,s1
    80001ed8:	00000097          	auipc	ra,0x0
    80001edc:	ad2080e7          	jalr	-1326(ra) # 800019aa <killed>
    80001ee0:	c929                	beqz	a0,80001f32 <usertrap+0xa6>
    80001ee2:	a099                	j	80001f28 <usertrap+0x9c>
    panic("usertrap: not from user mode");
    80001ee4:	00006517          	auipc	a0,0x6
    80001ee8:	42c50513          	addi	a0,a0,1068 # 80008310 <states.1727+0x58>
    80001eec:	00004097          	auipc	ra,0x4
    80001ef0:	fd6080e7          	jalr	-42(ra) # 80005ec2 <panic>
    if(killed(p))
    80001ef4:	00000097          	auipc	ra,0x0
    80001ef8:	ab6080e7          	jalr	-1354(ra) # 800019aa <killed>
    80001efc:	e921                	bnez	a0,80001f4c <usertrap+0xc0>
    p->trapframe->epc += 4;
    80001efe:	6cb8                	ld	a4,88(s1)
    80001f00:	6f1c                	ld	a5,24(a4)
    80001f02:	0791                	addi	a5,a5,4
    80001f04:	ef1c                	sd	a5,24(a4)
  asm volatile("csrr %0, sstatus" : "=r" (x) );
    80001f06:	100027f3          	csrr	a5,sstatus
  w_sstatus(r_sstatus() | SSTATUS_SIE);
    80001f0a:	0027e793          	ori	a5,a5,2
  asm volatile("csrw sstatus, %0" : : "r" (x));
    80001f0e:	10079073          	csrw	sstatus,a5
    syscall();
    80001f12:	00000097          	auipc	ra,0x0
    80001f16:	2d4080e7          	jalr	724(ra) # 800021e6 <syscall>
  if(killed(p))
    80001f1a:	8526                	mv	a0,s1
    80001f1c:	00000097          	auipc	ra,0x0
    80001f20:	a8e080e7          	jalr	-1394(ra) # 800019aa <killed>
    80001f24:	c911                	beqz	a0,80001f38 <usertrap+0xac>
    80001f26:	4901                	li	s2,0
    exit(-1);
    80001f28:	557d                	li	a0,-1
    80001f2a:	00000097          	auipc	ra,0x0
    80001f2e:	90c080e7          	jalr	-1780(ra) # 80001836 <exit>
  if(which_dev == 2)
    80001f32:	4789                	li	a5,2
    80001f34:	04f90f63          	beq	s2,a5,80001f92 <usertrap+0x106>
  usertrapret();
    80001f38:	00000097          	auipc	ra,0x0
    80001f3c:	dd6080e7          	jalr	-554(ra) # 80001d0e <usertrapret>
}
    80001f40:	60e2                	ld	ra,24(sp)
    80001f42:	6442                	ld	s0,16(sp)
    80001f44:	64a2                	ld	s1,8(sp)
    80001f46:	6902                	ld	s2,0(sp)
    80001f48:	6105                	addi	sp,sp,32
    80001f4a:	8082                	ret
      exit(-1);
    80001f4c:	557d                	li	a0,-1
    80001f4e:	00000097          	auipc	ra,0x0
    80001f52:	8e8080e7          	jalr	-1816(ra) # 80001836 <exit>
    80001f56:	b765                	j	80001efe <usertrap+0x72>
  asm volatile("csrr %0, scause" : "=r" (x) );
    80001f58:	142025f3          	csrr	a1,scause
    printf("usertrap(): unexpected scause %p pid=%d\n", r_scause(), p->pid);
    80001f5c:	5890                	lw	a2,48(s1)
    80001f5e:	00006517          	auipc	a0,0x6
    80001f62:	3d250513          	addi	a0,a0,978 # 80008330 <states.1727+0x78>
    80001f66:	00004097          	auipc	ra,0x4
    80001f6a:	fa6080e7          	jalr	-90(ra) # 80005f0c <printf>
  asm volatile("csrr %0, sepc" : "=r" (x) );
    80001f6e:	141025f3          	csrr	a1,sepc
  asm volatile("csrr %0, stval" : "=r" (x) );
    80001f72:	14302673          	csrr	a2,stval
    printf("            sepc=%p stval=%p\n", r_sepc(), r_stval());
    80001f76:	00006517          	auipc	a0,0x6
    80001f7a:	3ea50513          	addi	a0,a0,1002 # 80008360 <states.1727+0xa8>
    80001f7e:	00004097          	auipc	ra,0x4
    80001f82:	f8e080e7          	jalr	-114(ra) # 80005f0c <printf>
    setkilled(p);
    80001f86:	8526                	mv	a0,s1
    80001f88:	00000097          	auipc	ra,0x0
    80001f8c:	9f6080e7          	jalr	-1546(ra) # 8000197e <setkilled>
    80001f90:	b769                	j	80001f1a <usertrap+0x8e>
    yield();
    80001f92:	fffff097          	auipc	ra,0xfffff
    80001f96:	734080e7          	jalr	1844(ra) # 800016c6 <yield>
    80001f9a:	bf79                	j	80001f38 <usertrap+0xac>

0000000080001f9c <kerneltrap>:
{
    80001f9c:	7179                	addi	sp,sp,-48
    80001f9e:	f406                	sd	ra,40(sp)
    80001fa0:	f022                	sd	s0,32(sp)
    80001fa2:	ec26                	sd	s1,24(sp)
    80001fa4:	e84a                	sd	s2,16(sp)
    80001fa6:	e44e                	sd	s3,8(sp)
    80001fa8:	1800                	addi	s0,sp,48
  asm volatile("csrr %0, sepc" : "=r" (x) );
    80001faa:	14102973          	csrr	s2,sepc
  asm volatile("csrr %0, sstatus" : "=r" (x) );
    80001fae:	100024f3          	csrr	s1,sstatus
  asm volatile("csrr %0, scause" : "=r" (x) );
    80001fb2:	142029f3          	csrr	s3,scause
  if((sstatus & SSTATUS_SPP) == 0)
    80001fb6:	1004f793          	andi	a5,s1,256
    80001fba:	cb85                	beqz	a5,80001fea <kerneltrap+0x4e>
  asm volatile("csrr %0, sstatus" : "=r" (x) );
    80001fbc:	100027f3          	csrr	a5,sstatus
  return (x & SSTATUS_SIE) != 0;
    80001fc0:	8b89                	andi	a5,a5,2
  if(intr_get() != 0)
    80001fc2:	ef85                	bnez	a5,80001ffa <kerneltrap+0x5e>
  if((which_dev = devintr()) == 0){
    80001fc4:	00000097          	auipc	ra,0x0
    80001fc8:	e26080e7          	jalr	-474(ra) # 80001dea <devintr>
    80001fcc:	cd1d                	beqz	a0,8000200a <kerneltrap+0x6e>
  if(which_dev == 2 && myproc() != 0 && myproc()->state == RUNNING)
    80001fce:	4789                	li	a5,2
    80001fd0:	06f50a63          	beq	a0,a5,80002044 <kerneltrap+0xa8>
  asm volatile("csrw sepc, %0" : : "r" (x));
    80001fd4:	14191073          	csrw	sepc,s2
  asm volatile("csrw sstatus, %0" : : "r" (x));
    80001fd8:	10049073          	csrw	sstatus,s1
}
    80001fdc:	70a2                	ld	ra,40(sp)
    80001fde:	7402                	ld	s0,32(sp)
    80001fe0:	64e2                	ld	s1,24(sp)
    80001fe2:	6942                	ld	s2,16(sp)
    80001fe4:	69a2                	ld	s3,8(sp)
    80001fe6:	6145                	addi	sp,sp,48
    80001fe8:	8082                	ret
    panic("kerneltrap: not from supervisor mode");
    80001fea:	00006517          	auipc	a0,0x6
    80001fee:	39650513          	addi	a0,a0,918 # 80008380 <states.1727+0xc8>
    80001ff2:	00004097          	auipc	ra,0x4
    80001ff6:	ed0080e7          	jalr	-304(ra) # 80005ec2 <panic>
    panic("kerneltrap: interrupts enabled");
    80001ffa:	00006517          	auipc	a0,0x6
    80001ffe:	3ae50513          	addi	a0,a0,942 # 800083a8 <states.1727+0xf0>
    80002002:	00004097          	auipc	ra,0x4
    80002006:	ec0080e7          	jalr	-320(ra) # 80005ec2 <panic>
    printf("scause %p\n", scause);
    8000200a:	85ce                	mv	a1,s3
    8000200c:	00006517          	auipc	a0,0x6
    80002010:	3bc50513          	addi	a0,a0,956 # 800083c8 <states.1727+0x110>
    80002014:	00004097          	auipc	ra,0x4
    80002018:	ef8080e7          	jalr	-264(ra) # 80005f0c <printf>
  asm volatile("csrr %0, sepc" : "=r" (x) );
    8000201c:	141025f3          	csrr	a1,sepc
  asm volatile("csrr %0, stval" : "=r" (x) );
    80002020:	14302673          	csrr	a2,stval
    printf("sepc=%p stval=%p\n", r_sepc(), r_stval());
    80002024:	00006517          	auipc	a0,0x6
    80002028:	3b450513          	addi	a0,a0,948 # 800083d8 <states.1727+0x120>
    8000202c:	00004097          	auipc	ra,0x4
    80002030:	ee0080e7          	jalr	-288(ra) # 80005f0c <printf>
    panic("kerneltrap");
    80002034:	00006517          	auipc	a0,0x6
    80002038:	3bc50513          	addi	a0,a0,956 # 800083f0 <states.1727+0x138>
    8000203c:	00004097          	auipc	ra,0x4
    80002040:	e86080e7          	jalr	-378(ra) # 80005ec2 <panic>
  if(which_dev == 2 && myproc() != 0 && myproc()->state == RUNNING)
    80002044:	fffff097          	auipc	ra,0xfffff
    80002048:	f60080e7          	jalr	-160(ra) # 80000fa4 <myproc>
    8000204c:	d541                	beqz	a0,80001fd4 <kerneltrap+0x38>
    8000204e:	fffff097          	auipc	ra,0xfffff
    80002052:	f56080e7          	jalr	-170(ra) # 80000fa4 <myproc>
    80002056:	4d18                	lw	a4,24(a0)
    80002058:	4791                	li	a5,4
    8000205a:	f6f71de3          	bne	a4,a5,80001fd4 <kerneltrap+0x38>
    yield();
    8000205e:	fffff097          	auipc	ra,0xfffff
    80002062:	668080e7          	jalr	1640(ra) # 800016c6 <yield>
    80002066:	b7bd                	j	80001fd4 <kerneltrap+0x38>

0000000080002068 <argraw>:
  return strlen(buf);
}

static uint64
argraw(int n)
{
    80002068:	1101                	addi	sp,sp,-32
    8000206a:	ec06                	sd	ra,24(sp)
    8000206c:	e822                	sd	s0,16(sp)
    8000206e:	e426                	sd	s1,8(sp)
    80002070:	1000                	addi	s0,sp,32
    80002072:	84aa                	mv	s1,a0
  struct proc *p = myproc();
    80002074:	fffff097          	auipc	ra,0xfffff
    80002078:	f30080e7          	jalr	-208(ra) # 80000fa4 <myproc>
  switch (n) {
    8000207c:	4795                	li	a5,5
    8000207e:	0497e163          	bltu	a5,s1,800020c0 <argraw+0x58>
    80002082:	048a                	slli	s1,s1,0x2
    80002084:	00006717          	auipc	a4,0x6
    80002088:	3a470713          	addi	a4,a4,932 # 80008428 <states.1727+0x170>
    8000208c:	94ba                	add	s1,s1,a4
    8000208e:	409c                	lw	a5,0(s1)
    80002090:	97ba                	add	a5,a5,a4
    80002092:	8782                	jr	a5
  case 0:
    return p->trapframe->a0;
    80002094:	6d3c                	ld	a5,88(a0)
    80002096:	7ba8                	ld	a0,112(a5)
  case 5:
    return p->trapframe->a5;
  }
  panic("argraw");
  return -1;
}
    80002098:	60e2                	ld	ra,24(sp)
    8000209a:	6442                	ld	s0,16(sp)
    8000209c:	64a2                	ld	s1,8(sp)
    8000209e:	6105                	addi	sp,sp,32
    800020a0:	8082                	ret
    return p->trapframe->a1;
    800020a2:	6d3c                	ld	a5,88(a0)
    800020a4:	7fa8                	ld	a0,120(a5)
    800020a6:	bfcd                	j	80002098 <argraw+0x30>
    return p->trapframe->a2;
    800020a8:	6d3c                	ld	a5,88(a0)
    800020aa:	63c8                	ld	a0,128(a5)
    800020ac:	b7f5                	j	80002098 <argraw+0x30>
    return p->trapframe->a3;
    800020ae:	6d3c                	ld	a5,88(a0)
    800020b0:	67c8                	ld	a0,136(a5)
    800020b2:	b7dd                	j	80002098 <argraw+0x30>
    return p->trapframe->a4;
    800020b4:	6d3c                	ld	a5,88(a0)
    800020b6:	6bc8                	ld	a0,144(a5)
    800020b8:	b7c5                	j	80002098 <argraw+0x30>
    return p->trapframe->a5;
    800020ba:	6d3c                	ld	a5,88(a0)
    800020bc:	6fc8                	ld	a0,152(a5)
    800020be:	bfe9                	j	80002098 <argraw+0x30>
  panic("argraw");
    800020c0:	00006517          	auipc	a0,0x6
    800020c4:	34050513          	addi	a0,a0,832 # 80008400 <states.1727+0x148>
    800020c8:	00004097          	auipc	ra,0x4
    800020cc:	dfa080e7          	jalr	-518(ra) # 80005ec2 <panic>

00000000800020d0 <fetchaddr>:
{
    800020d0:	1101                	addi	sp,sp,-32
    800020d2:	ec06                	sd	ra,24(sp)
    800020d4:	e822                	sd	s0,16(sp)
    800020d6:	e426                	sd	s1,8(sp)
    800020d8:	e04a                	sd	s2,0(sp)
    800020da:	1000                	addi	s0,sp,32
    800020dc:	84aa                	mv	s1,a0
    800020de:	892e                	mv	s2,a1
  struct proc *p = myproc();
    800020e0:	fffff097          	auipc	ra,0xfffff
    800020e4:	ec4080e7          	jalr	-316(ra) # 80000fa4 <myproc>
  if(addr >= p->sz || addr+sizeof(uint64) > p->sz) // both tests needed, in case of overflow
    800020e8:	653c                	ld	a5,72(a0)
    800020ea:	02f4f863          	bgeu	s1,a5,8000211a <fetchaddr+0x4a>
    800020ee:	00848713          	addi	a4,s1,8
    800020f2:	02e7e663          	bltu	a5,a4,8000211e <fetchaddr+0x4e>
  if(copyin(p->pagetable, (char *)ip, addr, sizeof(*ip)) != 0)
    800020f6:	46a1                	li	a3,8
    800020f8:	8626                	mv	a2,s1
    800020fa:	85ca                	mv	a1,s2
    800020fc:	6928                	ld	a0,80(a0)
    800020fe:	fffff097          	auipc	ra,0xfffff
    80002102:	afc080e7          	jalr	-1284(ra) # 80000bfa <copyin>
    80002106:	00a03533          	snez	a0,a0
    8000210a:	40a00533          	neg	a0,a0
}
    8000210e:	60e2                	ld	ra,24(sp)
    80002110:	6442                	ld	s0,16(sp)
    80002112:	64a2                	ld	s1,8(sp)
    80002114:	6902                	ld	s2,0(sp)
    80002116:	6105                	addi	sp,sp,32
    80002118:	8082                	ret
    return -1;
    8000211a:	557d                	li	a0,-1
    8000211c:	bfcd                	j	8000210e <fetchaddr+0x3e>
    8000211e:	557d                	li	a0,-1
    80002120:	b7fd                	j	8000210e <fetchaddr+0x3e>

0000000080002122 <fetchstr>:
{
    80002122:	7179                	addi	sp,sp,-48
    80002124:	f406                	sd	ra,40(sp)
    80002126:	f022                	sd	s0,32(sp)
    80002128:	ec26                	sd	s1,24(sp)
    8000212a:	e84a                	sd	s2,16(sp)
    8000212c:	e44e                	sd	s3,8(sp)
    8000212e:	1800                	addi	s0,sp,48
    80002130:	892a                	mv	s2,a0
    80002132:	84ae                	mv	s1,a1
    80002134:	89b2                	mv	s3,a2
  struct proc *p = myproc();
    80002136:	fffff097          	auipc	ra,0xfffff
    8000213a:	e6e080e7          	jalr	-402(ra) # 80000fa4 <myproc>
  if(copyinstr(p->pagetable, buf, addr, max) < 0)
    8000213e:	86ce                	mv	a3,s3
    80002140:	864a                	mv	a2,s2
    80002142:	85a6                	mv	a1,s1
    80002144:	6928                	ld	a0,80(a0)
    80002146:	fffff097          	auipc	ra,0xfffff
    8000214a:	b40080e7          	jalr	-1216(ra) # 80000c86 <copyinstr>
    8000214e:	00054e63          	bltz	a0,8000216a <fetchstr+0x48>
  return strlen(buf);
    80002152:	8526                	mv	a0,s1
    80002154:	ffffe097          	auipc	ra,0xffffe
    80002158:	1a8080e7          	jalr	424(ra) # 800002fc <strlen>
}
    8000215c:	70a2                	ld	ra,40(sp)
    8000215e:	7402                	ld	s0,32(sp)
    80002160:	64e2                	ld	s1,24(sp)
    80002162:	6942                	ld	s2,16(sp)
    80002164:	69a2                	ld	s3,8(sp)
    80002166:	6145                	addi	sp,sp,48
    80002168:	8082                	ret
    return -1;
    8000216a:	557d                	li	a0,-1
    8000216c:	bfc5                	j	8000215c <fetchstr+0x3a>

000000008000216e <argint>:

// Fetch the nth 32-bit system call argument.
void
argint(int n, int *ip)
{
    8000216e:	1101                	addi	sp,sp,-32
    80002170:	ec06                	sd	ra,24(sp)
    80002172:	e822                	sd	s0,16(sp)
    80002174:	e426                	sd	s1,8(sp)
    80002176:	1000                	addi	s0,sp,32
    80002178:	84ae                	mv	s1,a1
  *ip = argraw(n);
    8000217a:	00000097          	auipc	ra,0x0
    8000217e:	eee080e7          	jalr	-274(ra) # 80002068 <argraw>
    80002182:	c088                	sw	a0,0(s1)
}
    80002184:	60e2                	ld	ra,24(sp)
    80002186:	6442                	ld	s0,16(sp)
    80002188:	64a2                	ld	s1,8(sp)
    8000218a:	6105                	addi	sp,sp,32
    8000218c:	8082                	ret

000000008000218e <argaddr>:
// Retrieve an argument as a pointer.
// Doesn't check for legality, since
// copyin/copyout will do that.
void
argaddr(int n, uint64 *ip)
{
    8000218e:	1101                	addi	sp,sp,-32
    80002190:	ec06                	sd	ra,24(sp)
    80002192:	e822                	sd	s0,16(sp)
    80002194:	e426                	sd	s1,8(sp)
    80002196:	1000                	addi	s0,sp,32
    80002198:	84ae                	mv	s1,a1
  *ip = argraw(n);
    8000219a:	00000097          	auipc	ra,0x0
    8000219e:	ece080e7          	jalr	-306(ra) # 80002068 <argraw>
    800021a2:	e088                	sd	a0,0(s1)
}
    800021a4:	60e2                	ld	ra,24(sp)
    800021a6:	6442                	ld	s0,16(sp)
    800021a8:	64a2                	ld	s1,8(sp)
    800021aa:	6105                	addi	sp,sp,32
    800021ac:	8082                	ret

00000000800021ae <argstr>:
// Fetch the nth word-sized system call argument as a null-terminated string.
// Copies into buf, at most max.
// Returns string length if OK (including nul), -1 if error.
int
argstr(int n, char *buf, int max)
{
    800021ae:	7179                	addi	sp,sp,-48
    800021b0:	f406                	sd	ra,40(sp)
    800021b2:	f022                	sd	s0,32(sp)
    800021b4:	ec26                	sd	s1,24(sp)
    800021b6:	e84a                	sd	s2,16(sp)
    800021b8:	1800                	addi	s0,sp,48
    800021ba:	84ae                	mv	s1,a1
    800021bc:	8932                	mv	s2,a2
  uint64 addr;
  argaddr(n, &addr);
    800021be:	fd840593          	addi	a1,s0,-40
    800021c2:	00000097          	auipc	ra,0x0
    800021c6:	fcc080e7          	jalr	-52(ra) # 8000218e <argaddr>
  return fetchstr(addr, buf, max);
    800021ca:	864a                	mv	a2,s2
    800021cc:	85a6                	mv	a1,s1
    800021ce:	fd843503          	ld	a0,-40(s0)
    800021d2:	00000097          	auipc	ra,0x0
    800021d6:	f50080e7          	jalr	-176(ra) # 80002122 <fetchstr>
}
    800021da:	70a2                	ld	ra,40(sp)
    800021dc:	7402                	ld	s0,32(sp)
    800021de:	64e2                	ld	s1,24(sp)
    800021e0:	6942                	ld	s2,16(sp)
    800021e2:	6145                	addi	sp,sp,48
    800021e4:	8082                	ret

00000000800021e6 <syscall>:



void
syscall(void)
{
    800021e6:	1101                	addi	sp,sp,-32
    800021e8:	ec06                	sd	ra,24(sp)
    800021ea:	e822                	sd	s0,16(sp)
    800021ec:	e426                	sd	s1,8(sp)
    800021ee:	e04a                	sd	s2,0(sp)
    800021f0:	1000                	addi	s0,sp,32
  int num;
  struct proc *p = myproc();
    800021f2:	fffff097          	auipc	ra,0xfffff
    800021f6:	db2080e7          	jalr	-590(ra) # 80000fa4 <myproc>
    800021fa:	84aa                	mv	s1,a0

  num = p->trapframe->a7;
    800021fc:	05853903          	ld	s2,88(a0)
    80002200:	0a893783          	ld	a5,168(s2)
    80002204:	0007869b          	sext.w	a3,a5
  if(num > 0 && num < NELEM(syscalls) && syscalls[num]) {
    80002208:	37fd                	addiw	a5,a5,-1
    8000220a:	4775                	li	a4,29
    8000220c:	00f76f63          	bltu	a4,a5,8000222a <syscall+0x44>
    80002210:	00369713          	slli	a4,a3,0x3
    80002214:	00006797          	auipc	a5,0x6
    80002218:	22c78793          	addi	a5,a5,556 # 80008440 <syscalls>
    8000221c:	97ba                	add	a5,a5,a4
    8000221e:	639c                	ld	a5,0(a5)
    80002220:	c789                	beqz	a5,8000222a <syscall+0x44>
    // Use num to lookup the system call function for num, call it,
    // and store its return value in p->trapframe->a0
    p->trapframe->a0 = syscalls[num]();
    80002222:	9782                	jalr	a5
    80002224:	06a93823          	sd	a0,112(s2)
    80002228:	a839                	j	80002246 <syscall+0x60>
  } else {
    printf("%d %s: unknown sys call %d\n",
    8000222a:	15848613          	addi	a2,s1,344
    8000222e:	588c                	lw	a1,48(s1)
    80002230:	00006517          	auipc	a0,0x6
    80002234:	1d850513          	addi	a0,a0,472 # 80008408 <states.1727+0x150>
    80002238:	00004097          	auipc	ra,0x4
    8000223c:	cd4080e7          	jalr	-812(ra) # 80005f0c <printf>
            p->pid, p->name, num);
    p->trapframe->a0 = -1;
    80002240:	6cbc                	ld	a5,88(s1)
    80002242:	577d                	li	a4,-1
    80002244:	fbb8                	sd	a4,112(a5)
  }
}
    80002246:	60e2                	ld	ra,24(sp)
    80002248:	6442                	ld	s0,16(sp)
    8000224a:	64a2                	ld	s1,8(sp)
    8000224c:	6902                	ld	s2,0(sp)
    8000224e:	6105                	addi	sp,sp,32
    80002250:	8082                	ret

0000000080002252 <sys_exit>:
#include "spinlock.h"
#include "proc.h"

uint64
sys_exit(void)
{
    80002252:	1101                	addi	sp,sp,-32
    80002254:	ec06                	sd	ra,24(sp)
    80002256:	e822                	sd	s0,16(sp)
    80002258:	1000                	addi	s0,sp,32
  int n;
  argint(0, &n);
    8000225a:	fec40593          	addi	a1,s0,-20
    8000225e:	4501                	li	a0,0
    80002260:	00000097          	auipc	ra,0x0
    80002264:	f0e080e7          	jalr	-242(ra) # 8000216e <argint>
  exit(n);
    80002268:	fec42503          	lw	a0,-20(s0)
    8000226c:	fffff097          	auipc	ra,0xfffff
    80002270:	5ca080e7          	jalr	1482(ra) # 80001836 <exit>
  return 0;  // not reached
}
    80002274:	4501                	li	a0,0
    80002276:	60e2                	ld	ra,24(sp)
    80002278:	6442                	ld	s0,16(sp)
    8000227a:	6105                	addi	sp,sp,32
    8000227c:	8082                	ret

000000008000227e <sys_getpid>:

uint64
sys_getpid(void)
{
    8000227e:	1141                	addi	sp,sp,-16
    80002280:	e406                	sd	ra,8(sp)
    80002282:	e022                	sd	s0,0(sp)
    80002284:	0800                	addi	s0,sp,16
  return myproc()->pid;
    80002286:	fffff097          	auipc	ra,0xfffff
    8000228a:	d1e080e7          	jalr	-738(ra) # 80000fa4 <myproc>
}
    8000228e:	5908                	lw	a0,48(a0)
    80002290:	60a2                	ld	ra,8(sp)
    80002292:	6402                	ld	s0,0(sp)
    80002294:	0141                	addi	sp,sp,16
    80002296:	8082                	ret

0000000080002298 <sys_fork>:

uint64
sys_fork(void)
{
    80002298:	1141                	addi	sp,sp,-16
    8000229a:	e406                	sd	ra,8(sp)
    8000229c:	e022                	sd	s0,0(sp)
    8000229e:	0800                	addi	s0,sp,16
  return fork();
    800022a0:	fffff097          	auipc	ra,0xfffff
    800022a4:	174080e7          	jalr	372(ra) # 80001414 <fork>
}
    800022a8:	60a2                	ld	ra,8(sp)
    800022aa:	6402                	ld	s0,0(sp)
    800022ac:	0141                	addi	sp,sp,16
    800022ae:	8082                	ret

00000000800022b0 <sys_wait>:

uint64
sys_wait(void)
{
    800022b0:	1101                	addi	sp,sp,-32
    800022b2:	ec06                	sd	ra,24(sp)
    800022b4:	e822                	sd	s0,16(sp)
    800022b6:	1000                	addi	s0,sp,32
  uint64 p;
  argaddr(0, &p);
    800022b8:	fe840593          	addi	a1,s0,-24
    800022bc:	4501                	li	a0,0
    800022be:	00000097          	auipc	ra,0x0
    800022c2:	ed0080e7          	jalr	-304(ra) # 8000218e <argaddr>
  return wait(p);
    800022c6:	fe843503          	ld	a0,-24(s0)
    800022ca:	fffff097          	auipc	ra,0xfffff
    800022ce:	712080e7          	jalr	1810(ra) # 800019dc <wait>
}
    800022d2:	60e2                	ld	ra,24(sp)
    800022d4:	6442                	ld	s0,16(sp)
    800022d6:	6105                	addi	sp,sp,32
    800022d8:	8082                	ret

00000000800022da <sys_sbrk>:

uint64
sys_sbrk(void)
{
    800022da:	7179                	addi	sp,sp,-48
    800022dc:	f406                	sd	ra,40(sp)
    800022de:	f022                	sd	s0,32(sp)
    800022e0:	ec26                	sd	s1,24(sp)
    800022e2:	1800                	addi	s0,sp,48
  uint64 addr;
  int n;

  argint(0, &n);
    800022e4:	fdc40593          	addi	a1,s0,-36
    800022e8:	4501                	li	a0,0
    800022ea:	00000097          	auipc	ra,0x0
    800022ee:	e84080e7          	jalr	-380(ra) # 8000216e <argint>
  addr = myproc()->sz;
    800022f2:	fffff097          	auipc	ra,0xfffff
    800022f6:	cb2080e7          	jalr	-846(ra) # 80000fa4 <myproc>
    800022fa:	6524                	ld	s1,72(a0)
  if(growproc(n) < 0)
    800022fc:	fdc42503          	lw	a0,-36(s0)
    80002300:	fffff097          	auipc	ra,0xfffff
    80002304:	0b8080e7          	jalr	184(ra) # 800013b8 <growproc>
    80002308:	00054863          	bltz	a0,80002318 <sys_sbrk+0x3e>
    return -1;
  return addr;
}
    8000230c:	8526                	mv	a0,s1
    8000230e:	70a2                	ld	ra,40(sp)
    80002310:	7402                	ld	s0,32(sp)
    80002312:	64e2                	ld	s1,24(sp)
    80002314:	6145                	addi	sp,sp,48
    80002316:	8082                	ret
    return -1;
    80002318:	54fd                	li	s1,-1
    8000231a:	bfcd                	j	8000230c <sys_sbrk+0x32>

000000008000231c <sys_sleep>:

uint64
sys_sleep(void)
{
    8000231c:	7139                	addi	sp,sp,-64
    8000231e:	fc06                	sd	ra,56(sp)
    80002320:	f822                	sd	s0,48(sp)
    80002322:	f426                	sd	s1,40(sp)
    80002324:	f04a                	sd	s2,32(sp)
    80002326:	ec4e                	sd	s3,24(sp)
    80002328:	0080                	addi	s0,sp,64
  int n;
  uint ticks0;


  argint(0, &n);
    8000232a:	fcc40593          	addi	a1,s0,-52
    8000232e:	4501                	li	a0,0
    80002330:	00000097          	auipc	ra,0x0
    80002334:	e3e080e7          	jalr	-450(ra) # 8000216e <argint>
  acquire(&tickslock);
    80002338:	0000c517          	auipc	a0,0xc
    8000233c:	6b850513          	addi	a0,a0,1720 # 8000e9f0 <tickslock>
    80002340:	00004097          	auipc	ra,0x4
    80002344:	0cc080e7          	jalr	204(ra) # 8000640c <acquire>
  ticks0 = ticks;
    80002348:	00006917          	auipc	s2,0x6
    8000234c:	63892903          	lw	s2,1592(s2) # 80008980 <ticks>
  while(ticks - ticks0 < n){
    80002350:	fcc42783          	lw	a5,-52(s0)
    80002354:	cf9d                	beqz	a5,80002392 <sys_sleep+0x76>
    if(killed(myproc())){
      release(&tickslock);
      return -1;
    }
    sleep(&ticks, &tickslock);
    80002356:	0000c997          	auipc	s3,0xc
    8000235a:	69a98993          	addi	s3,s3,1690 # 8000e9f0 <tickslock>
    8000235e:	00006497          	auipc	s1,0x6
    80002362:	62248493          	addi	s1,s1,1570 # 80008980 <ticks>
    if(killed(myproc())){
    80002366:	fffff097          	auipc	ra,0xfffff
    8000236a:	c3e080e7          	jalr	-962(ra) # 80000fa4 <myproc>
    8000236e:	fffff097          	auipc	ra,0xfffff
    80002372:	63c080e7          	jalr	1596(ra) # 800019aa <killed>
    80002376:	ed15                	bnez	a0,800023b2 <sys_sleep+0x96>
    sleep(&ticks, &tickslock);
    80002378:	85ce                	mv	a1,s3
    8000237a:	8526                	mv	a0,s1
    8000237c:	fffff097          	auipc	ra,0xfffff
    80002380:	386080e7          	jalr	902(ra) # 80001702 <sleep>
  while(ticks - ticks0 < n){
    80002384:	409c                	lw	a5,0(s1)
    80002386:	412787bb          	subw	a5,a5,s2
    8000238a:	fcc42703          	lw	a4,-52(s0)
    8000238e:	fce7ece3          	bltu	a5,a4,80002366 <sys_sleep+0x4a>
  }
  release(&tickslock);
    80002392:	0000c517          	auipc	a0,0xc
    80002396:	65e50513          	addi	a0,a0,1630 # 8000e9f0 <tickslock>
    8000239a:	00004097          	auipc	ra,0x4
    8000239e:	126080e7          	jalr	294(ra) # 800064c0 <release>
  return 0;
    800023a2:	4501                	li	a0,0
}
    800023a4:	70e2                	ld	ra,56(sp)
    800023a6:	7442                	ld	s0,48(sp)
    800023a8:	74a2                	ld	s1,40(sp)
    800023aa:	7902                	ld	s2,32(sp)
    800023ac:	69e2                	ld	s3,24(sp)
    800023ae:	6121                	addi	sp,sp,64
    800023b0:	8082                	ret
      release(&tickslock);
    800023b2:	0000c517          	auipc	a0,0xc
    800023b6:	63e50513          	addi	a0,a0,1598 # 8000e9f0 <tickslock>
    800023ba:	00004097          	auipc	ra,0x4
    800023be:	106080e7          	jalr	262(ra) # 800064c0 <release>
      return -1;
    800023c2:	557d                	li	a0,-1
    800023c4:	b7c5                	j	800023a4 <sys_sleep+0x88>

00000000800023c6 <sys_pgaccess>:


#ifdef LAB_PGTBL
int
sys_pgaccess(void)
{
    800023c6:	715d                	addi	sp,sp,-80
    800023c8:	e486                	sd	ra,72(sp)
    800023ca:	e0a2                	sd	s0,64(sp)
    800023cc:	fc26                	sd	s1,56(sp)
    800023ce:	f84a                	sd	s2,48(sp)
    800023d0:	f44e                	sd	s3,40(sp)
    800023d2:	f052                	sd	s4,32(sp)
    800023d4:	0880                	addi	s0,sp,80
  // lab pgtbl: your code here.
  //new!
  uint64 va;           //virtual address
  int pagenum;         //number of pagetable
  uint64 bufaddr;     //buffer address
  uint64 bitmask = 0;      //store bitmask
    800023d6:	fa043823          	sd	zero,-80(s0)

  argaddr(0,&va);
    800023da:	fc840593          	addi	a1,s0,-56
    800023de:	4501                	li	a0,0
    800023e0:	00000097          	auipc	ra,0x0
    800023e4:	dae080e7          	jalr	-594(ra) # 8000218e <argaddr>
  argint(1,&pagenum);
    800023e8:	fc440593          	addi	a1,s0,-60
    800023ec:	4505                	li	a0,1
    800023ee:	00000097          	auipc	ra,0x0
    800023f2:	d80080e7          	jalr	-640(ra) # 8000216e <argint>
  argaddr(2,&bufaddr);
    800023f6:	fb840593          	addi	a1,s0,-72
    800023fa:	4509                	li	a0,2
    800023fc:	00000097          	auipc	ra,0x0
    80002400:	d92080e7          	jalr	-622(ra) # 8000218e <argaddr>

  struct proc *cur_proc = myproc(); //get current process
    80002404:	fffff097          	auipc	ra,0xfffff
    80002408:	ba0080e7          	jalr	-1120(ra) # 80000fa4 <myproc>
    8000240c:	892a                	mv	s2,a0

  for(int i = 0;i<pagenum;i++)
    8000240e:	fc442783          	lw	a5,-60(s0)
    80002412:	04f05b63          	blez	a5,80002468 <sys_pgaccess+0xa2>
    80002416:	4481                	li	s1,0
  {
    pte_t *pte = walk(cur_proc->pagetable, va+i*PGSIZE, 0);
    if ((*pte) & PTE_A)
      bitmask = bitmask | (1L << i);
    80002418:	4985                	li	s3,1
    8000241a:	a821                	j	80002432 <sys_pgaccess+0x6c>
    *pte = ~(*pte & PTE_A) & *pte;
    8000241c:	611c                	ld	a5,0(a0)
    8000241e:	fbf7f793          	andi	a5,a5,-65
    80002422:	e11c                	sd	a5,0(a0)
  for(int i = 0;i<pagenum;i++)
    80002424:	0485                	addi	s1,s1,1
    80002426:	fc442703          	lw	a4,-60(s0)
    8000242a:	0004879b          	sext.w	a5,s1
    8000242e:	02e7dd63          	bge	a5,a4,80002468 <sys_pgaccess+0xa2>
    80002432:	00048a1b          	sext.w	s4,s1
    pte_t *pte = walk(cur_proc->pagetable, va+i*PGSIZE, 0);
    80002436:	00c49593          	slli	a1,s1,0xc
    8000243a:	4601                	li	a2,0
    8000243c:	fc843783          	ld	a5,-56(s0)
    80002440:	95be                	add	a1,a1,a5
    80002442:	05093503          	ld	a0,80(s2)
    80002446:	ffffe097          	auipc	ra,0xffffe
    8000244a:	01e080e7          	jalr	30(ra) # 80000464 <walk>
    if ((*pte) & PTE_A)
    8000244e:	611c                	ld	a5,0(a0)
    80002450:	0407f793          	andi	a5,a5,64
    80002454:	d7e1                	beqz	a5,8000241c <sys_pgaccess+0x56>
      bitmask = bitmask | (1L << i);
    80002456:	01499a33          	sll	s4,s3,s4
    8000245a:	fb043783          	ld	a5,-80(s0)
    8000245e:	0147ea33          	or	s4,a5,s4
    80002462:	fb443823          	sd	s4,-80(s0)
    80002466:	bf5d                	j	8000241c <sys_pgaccess+0x56>
  }
  if (copyout(cur_proc->pagetable, bufaddr, (char *) &bitmask, sizeof(bitmask)) < 0)
    80002468:	46a1                	li	a3,8
    8000246a:	fb040613          	addi	a2,s0,-80
    8000246e:	fb843583          	ld	a1,-72(s0)
    80002472:	05093503          	ld	a0,80(s2)
    80002476:	ffffe097          	auipc	ra,0xffffe
    8000247a:	6c4080e7          	jalr	1732(ra) # 80000b3a <copyout>
    return -1;
  return 0;
}
    8000247e:	41f5551b          	sraiw	a0,a0,0x1f
    80002482:	60a6                	ld	ra,72(sp)
    80002484:	6406                	ld	s0,64(sp)
    80002486:	74e2                	ld	s1,56(sp)
    80002488:	7942                	ld	s2,48(sp)
    8000248a:	79a2                	ld	s3,40(sp)
    8000248c:	7a02                	ld	s4,32(sp)
    8000248e:	6161                	addi	sp,sp,80
    80002490:	8082                	ret

0000000080002492 <sys_kill>:
#endif

uint64
sys_kill(void)
{
    80002492:	1101                	addi	sp,sp,-32
    80002494:	ec06                	sd	ra,24(sp)
    80002496:	e822                	sd	s0,16(sp)
    80002498:	1000                	addi	s0,sp,32
  int pid;

  argint(0, &pid);
    8000249a:	fec40593          	addi	a1,s0,-20
    8000249e:	4501                	li	a0,0
    800024a0:	00000097          	auipc	ra,0x0
    800024a4:	cce080e7          	jalr	-818(ra) # 8000216e <argint>
  return kill(pid);
    800024a8:	fec42503          	lw	a0,-20(s0)
    800024ac:	fffff097          	auipc	ra,0xfffff
    800024b0:	460080e7          	jalr	1120(ra) # 8000190c <kill>
}
    800024b4:	60e2                	ld	ra,24(sp)
    800024b6:	6442                	ld	s0,16(sp)
    800024b8:	6105                	addi	sp,sp,32
    800024ba:	8082                	ret

00000000800024bc <sys_uptime>:

// return how many clock tick interrupts have occurred
// since start.
uint64
sys_uptime(void)
{
    800024bc:	1101                	addi	sp,sp,-32
    800024be:	ec06                	sd	ra,24(sp)
    800024c0:	e822                	sd	s0,16(sp)
    800024c2:	e426                	sd	s1,8(sp)
    800024c4:	1000                	addi	s0,sp,32
  uint xticks;

  acquire(&tickslock);
    800024c6:	0000c517          	auipc	a0,0xc
    800024ca:	52a50513          	addi	a0,a0,1322 # 8000e9f0 <tickslock>
    800024ce:	00004097          	auipc	ra,0x4
    800024d2:	f3e080e7          	jalr	-194(ra) # 8000640c <acquire>
  xticks = ticks;
    800024d6:	00006497          	auipc	s1,0x6
    800024da:	4aa4a483          	lw	s1,1194(s1) # 80008980 <ticks>
  release(&tickslock);
    800024de:	0000c517          	auipc	a0,0xc
    800024e2:	51250513          	addi	a0,a0,1298 # 8000e9f0 <tickslock>
    800024e6:	00004097          	auipc	ra,0x4
    800024ea:	fda080e7          	jalr	-38(ra) # 800064c0 <release>
  return xticks;
}
    800024ee:	02049513          	slli	a0,s1,0x20
    800024f2:	9101                	srli	a0,a0,0x20
    800024f4:	60e2                	ld	ra,24(sp)
    800024f6:	6442                	ld	s0,16(sp)
    800024f8:	64a2                	ld	s1,8(sp)
    800024fa:	6105                	addi	sp,sp,32
    800024fc:	8082                	ret

00000000800024fe <binit>:
  struct buf head;
} bcache;

void
binit(void)
{
    800024fe:	7179                	addi	sp,sp,-48
    80002500:	f406                	sd	ra,40(sp)
    80002502:	f022                	sd	s0,32(sp)
    80002504:	ec26                	sd	s1,24(sp)
    80002506:	e84a                	sd	s2,16(sp)
    80002508:	e44e                	sd	s3,8(sp)
    8000250a:	e052                	sd	s4,0(sp)
    8000250c:	1800                	addi	s0,sp,48
  struct buf *b;

  initlock(&bcache.lock, "bcache");
    8000250e:	00006597          	auipc	a1,0x6
    80002512:	02a58593          	addi	a1,a1,42 # 80008538 <syscalls+0xf8>
    80002516:	0000c517          	auipc	a0,0xc
    8000251a:	4f250513          	addi	a0,a0,1266 # 8000ea08 <bcache>
    8000251e:	00004097          	auipc	ra,0x4
    80002522:	e5e080e7          	jalr	-418(ra) # 8000637c <initlock>

  // Create linked list of buffers
  bcache.head.prev = &bcache.head;
    80002526:	00014797          	auipc	a5,0x14
    8000252a:	4e278793          	addi	a5,a5,1250 # 80016a08 <bcache+0x8000>
    8000252e:	00014717          	auipc	a4,0x14
    80002532:	74270713          	addi	a4,a4,1858 # 80016c70 <bcache+0x8268>
    80002536:	2ae7b823          	sd	a4,688(a5)
  bcache.head.next = &bcache.head;
    8000253a:	2ae7bc23          	sd	a4,696(a5)
  for(b = bcache.buf; b < bcache.buf+NBUF; b++){
    8000253e:	0000c497          	auipc	s1,0xc
    80002542:	4e248493          	addi	s1,s1,1250 # 8000ea20 <bcache+0x18>
    b->next = bcache.head.next;
    80002546:	893e                	mv	s2,a5
    b->prev = &bcache.head;
    80002548:	89ba                	mv	s3,a4
    initsleeplock(&b->lock, "buffer");
    8000254a:	00006a17          	auipc	s4,0x6
    8000254e:	ff6a0a13          	addi	s4,s4,-10 # 80008540 <syscalls+0x100>
    b->next = bcache.head.next;
    80002552:	2b893783          	ld	a5,696(s2)
    80002556:	e8bc                	sd	a5,80(s1)
    b->prev = &bcache.head;
    80002558:	0534b423          	sd	s3,72(s1)
    initsleeplock(&b->lock, "buffer");
    8000255c:	85d2                	mv	a1,s4
    8000255e:	01048513          	addi	a0,s1,16
    80002562:	00001097          	auipc	ra,0x1
    80002566:	4c4080e7          	jalr	1220(ra) # 80003a26 <initsleeplock>
    bcache.head.next->prev = b;
    8000256a:	2b893783          	ld	a5,696(s2)
    8000256e:	e7a4                	sd	s1,72(a5)
    bcache.head.next = b;
    80002570:	2a993c23          	sd	s1,696(s2)
  for(b = bcache.buf; b < bcache.buf+NBUF; b++){
    80002574:	45848493          	addi	s1,s1,1112
    80002578:	fd349de3          	bne	s1,s3,80002552 <binit+0x54>
  }
}
    8000257c:	70a2                	ld	ra,40(sp)
    8000257e:	7402                	ld	s0,32(sp)
    80002580:	64e2                	ld	s1,24(sp)
    80002582:	6942                	ld	s2,16(sp)
    80002584:	69a2                	ld	s3,8(sp)
    80002586:	6a02                	ld	s4,0(sp)
    80002588:	6145                	addi	sp,sp,48
    8000258a:	8082                	ret

000000008000258c <bread>:
}

// Return a locked buf with the contents of the indicated block.
struct buf*
bread(uint dev, uint blockno)
{
    8000258c:	7179                	addi	sp,sp,-48
    8000258e:	f406                	sd	ra,40(sp)
    80002590:	f022                	sd	s0,32(sp)
    80002592:	ec26                	sd	s1,24(sp)
    80002594:	e84a                	sd	s2,16(sp)
    80002596:	e44e                	sd	s3,8(sp)
    80002598:	1800                	addi	s0,sp,48
    8000259a:	89aa                	mv	s3,a0
    8000259c:	892e                	mv	s2,a1
  acquire(&bcache.lock);
    8000259e:	0000c517          	auipc	a0,0xc
    800025a2:	46a50513          	addi	a0,a0,1130 # 8000ea08 <bcache>
    800025a6:	00004097          	auipc	ra,0x4
    800025aa:	e66080e7          	jalr	-410(ra) # 8000640c <acquire>
  for(b = bcache.head.next; b != &bcache.head; b = b->next){
    800025ae:	00014497          	auipc	s1,0x14
    800025b2:	7124b483          	ld	s1,1810(s1) # 80016cc0 <bcache+0x82b8>
    800025b6:	00014797          	auipc	a5,0x14
    800025ba:	6ba78793          	addi	a5,a5,1722 # 80016c70 <bcache+0x8268>
    800025be:	02f48f63          	beq	s1,a5,800025fc <bread+0x70>
    800025c2:	873e                	mv	a4,a5
    800025c4:	a021                	j	800025cc <bread+0x40>
    800025c6:	68a4                	ld	s1,80(s1)
    800025c8:	02e48a63          	beq	s1,a4,800025fc <bread+0x70>
    if(b->dev == dev && b->blockno == blockno){
    800025cc:	449c                	lw	a5,8(s1)
    800025ce:	ff379ce3          	bne	a5,s3,800025c6 <bread+0x3a>
    800025d2:	44dc                	lw	a5,12(s1)
    800025d4:	ff2799e3          	bne	a5,s2,800025c6 <bread+0x3a>
      b->refcnt++;
    800025d8:	40bc                	lw	a5,64(s1)
    800025da:	2785                	addiw	a5,a5,1
    800025dc:	c0bc                	sw	a5,64(s1)
      release(&bcache.lock);
    800025de:	0000c517          	auipc	a0,0xc
    800025e2:	42a50513          	addi	a0,a0,1066 # 8000ea08 <bcache>
    800025e6:	00004097          	auipc	ra,0x4
    800025ea:	eda080e7          	jalr	-294(ra) # 800064c0 <release>
      acquiresleep(&b->lock);
    800025ee:	01048513          	addi	a0,s1,16
    800025f2:	00001097          	auipc	ra,0x1
    800025f6:	46e080e7          	jalr	1134(ra) # 80003a60 <acquiresleep>
      return b;
    800025fa:	a8b9                	j	80002658 <bread+0xcc>
  for(b = bcache.head.prev; b != &bcache.head; b = b->prev){
    800025fc:	00014497          	auipc	s1,0x14
    80002600:	6bc4b483          	ld	s1,1724(s1) # 80016cb8 <bcache+0x82b0>
    80002604:	00014797          	auipc	a5,0x14
    80002608:	66c78793          	addi	a5,a5,1644 # 80016c70 <bcache+0x8268>
    8000260c:	00f48863          	beq	s1,a5,8000261c <bread+0x90>
    80002610:	873e                	mv	a4,a5
    if(b->refcnt == 0) {
    80002612:	40bc                	lw	a5,64(s1)
    80002614:	cf81                	beqz	a5,8000262c <bread+0xa0>
  for(b = bcache.head.prev; b != &bcache.head; b = b->prev){
    80002616:	64a4                	ld	s1,72(s1)
    80002618:	fee49de3          	bne	s1,a4,80002612 <bread+0x86>
  panic("bget: no buffers");
    8000261c:	00006517          	auipc	a0,0x6
    80002620:	f2c50513          	addi	a0,a0,-212 # 80008548 <syscalls+0x108>
    80002624:	00004097          	auipc	ra,0x4
    80002628:	89e080e7          	jalr	-1890(ra) # 80005ec2 <panic>
      b->dev = dev;
    8000262c:	0134a423          	sw	s3,8(s1)
      b->blockno = blockno;
    80002630:	0124a623          	sw	s2,12(s1)
      b->valid = 0;
    80002634:	0004a023          	sw	zero,0(s1)
      b->refcnt = 1;
    80002638:	4785                	li	a5,1
    8000263a:	c0bc                	sw	a5,64(s1)
      release(&bcache.lock);
    8000263c:	0000c517          	auipc	a0,0xc
    80002640:	3cc50513          	addi	a0,a0,972 # 8000ea08 <bcache>
    80002644:	00004097          	auipc	ra,0x4
    80002648:	e7c080e7          	jalr	-388(ra) # 800064c0 <release>
      acquiresleep(&b->lock);
    8000264c:	01048513          	addi	a0,s1,16
    80002650:	00001097          	auipc	ra,0x1
    80002654:	410080e7          	jalr	1040(ra) # 80003a60 <acquiresleep>
  struct buf *b;

  b = bget(dev, blockno);
  if(!b->valid) {
    80002658:	409c                	lw	a5,0(s1)
    8000265a:	cb89                	beqz	a5,8000266c <bread+0xe0>
    virtio_disk_rw(b, 0);
    b->valid = 1;
  }
  return b;
}
    8000265c:	8526                	mv	a0,s1
    8000265e:	70a2                	ld	ra,40(sp)
    80002660:	7402                	ld	s0,32(sp)
    80002662:	64e2                	ld	s1,24(sp)
    80002664:	6942                	ld	s2,16(sp)
    80002666:	69a2                	ld	s3,8(sp)
    80002668:	6145                	addi	sp,sp,48
    8000266a:	8082                	ret
    virtio_disk_rw(b, 0);
    8000266c:	4581                	li	a1,0
    8000266e:	8526                	mv	a0,s1
    80002670:	00003097          	auipc	ra,0x3
    80002674:	fe8080e7          	jalr	-24(ra) # 80005658 <virtio_disk_rw>
    b->valid = 1;
    80002678:	4785                	li	a5,1
    8000267a:	c09c                	sw	a5,0(s1)
  return b;
    8000267c:	b7c5                	j	8000265c <bread+0xd0>

000000008000267e <bwrite>:

// Write b's contents to disk.  Must be locked.
void
bwrite(struct buf *b)
{
    8000267e:	1101                	addi	sp,sp,-32
    80002680:	ec06                	sd	ra,24(sp)
    80002682:	e822                	sd	s0,16(sp)
    80002684:	e426                	sd	s1,8(sp)
    80002686:	1000                	addi	s0,sp,32
    80002688:	84aa                	mv	s1,a0
  if(!holdingsleep(&b->lock))
    8000268a:	0541                	addi	a0,a0,16
    8000268c:	00001097          	auipc	ra,0x1
    80002690:	46e080e7          	jalr	1134(ra) # 80003afa <holdingsleep>
    80002694:	cd01                	beqz	a0,800026ac <bwrite+0x2e>
    panic("bwrite");
  virtio_disk_rw(b, 1);
    80002696:	4585                	li	a1,1
    80002698:	8526                	mv	a0,s1
    8000269a:	00003097          	auipc	ra,0x3
    8000269e:	fbe080e7          	jalr	-66(ra) # 80005658 <virtio_disk_rw>
}
    800026a2:	60e2                	ld	ra,24(sp)
    800026a4:	6442                	ld	s0,16(sp)
    800026a6:	64a2                	ld	s1,8(sp)
    800026a8:	6105                	addi	sp,sp,32
    800026aa:	8082                	ret
    panic("bwrite");
    800026ac:	00006517          	auipc	a0,0x6
    800026b0:	eb450513          	addi	a0,a0,-332 # 80008560 <syscalls+0x120>
    800026b4:	00004097          	auipc	ra,0x4
    800026b8:	80e080e7          	jalr	-2034(ra) # 80005ec2 <panic>

00000000800026bc <brelse>:

// Release a locked buffer.
// Move to the head of the most-recently-used list.
void
brelse(struct buf *b)
{
    800026bc:	1101                	addi	sp,sp,-32
    800026be:	ec06                	sd	ra,24(sp)
    800026c0:	e822                	sd	s0,16(sp)
    800026c2:	e426                	sd	s1,8(sp)
    800026c4:	e04a                	sd	s2,0(sp)
    800026c6:	1000                	addi	s0,sp,32
    800026c8:	84aa                	mv	s1,a0
  if(!holdingsleep(&b->lock))
    800026ca:	01050913          	addi	s2,a0,16
    800026ce:	854a                	mv	a0,s2
    800026d0:	00001097          	auipc	ra,0x1
    800026d4:	42a080e7          	jalr	1066(ra) # 80003afa <holdingsleep>
    800026d8:	c92d                	beqz	a0,8000274a <brelse+0x8e>
    panic("brelse");

  releasesleep(&b->lock);
    800026da:	854a                	mv	a0,s2
    800026dc:	00001097          	auipc	ra,0x1
    800026e0:	3da080e7          	jalr	986(ra) # 80003ab6 <releasesleep>

  acquire(&bcache.lock);
    800026e4:	0000c517          	auipc	a0,0xc
    800026e8:	32450513          	addi	a0,a0,804 # 8000ea08 <bcache>
    800026ec:	00004097          	auipc	ra,0x4
    800026f0:	d20080e7          	jalr	-736(ra) # 8000640c <acquire>
  b->refcnt--;
    800026f4:	40bc                	lw	a5,64(s1)
    800026f6:	37fd                	addiw	a5,a5,-1
    800026f8:	0007871b          	sext.w	a4,a5
    800026fc:	c0bc                	sw	a5,64(s1)
  if (b->refcnt == 0) {
    800026fe:	eb05                	bnez	a4,8000272e <brelse+0x72>
    // no one is waiting for it.
    b->next->prev = b->prev;
    80002700:	68bc                	ld	a5,80(s1)
    80002702:	64b8                	ld	a4,72(s1)
    80002704:	e7b8                	sd	a4,72(a5)
    b->prev->next = b->next;
    80002706:	64bc                	ld	a5,72(s1)
    80002708:	68b8                	ld	a4,80(s1)
    8000270a:	ebb8                	sd	a4,80(a5)
    b->next = bcache.head.next;
    8000270c:	00014797          	auipc	a5,0x14
    80002710:	2fc78793          	addi	a5,a5,764 # 80016a08 <bcache+0x8000>
    80002714:	2b87b703          	ld	a4,696(a5)
    80002718:	e8b8                	sd	a4,80(s1)
    b->prev = &bcache.head;
    8000271a:	00014717          	auipc	a4,0x14
    8000271e:	55670713          	addi	a4,a4,1366 # 80016c70 <bcache+0x8268>
    80002722:	e4b8                	sd	a4,72(s1)
    bcache.head.next->prev = b;
    80002724:	2b87b703          	ld	a4,696(a5)
    80002728:	e724                	sd	s1,72(a4)
    bcache.head.next = b;
    8000272a:	2a97bc23          	sd	s1,696(a5)
  }
  
  release(&bcache.lock);
    8000272e:	0000c517          	auipc	a0,0xc
    80002732:	2da50513          	addi	a0,a0,730 # 8000ea08 <bcache>
    80002736:	00004097          	auipc	ra,0x4
    8000273a:	d8a080e7          	jalr	-630(ra) # 800064c0 <release>
}
    8000273e:	60e2                	ld	ra,24(sp)
    80002740:	6442                	ld	s0,16(sp)
    80002742:	64a2                	ld	s1,8(sp)
    80002744:	6902                	ld	s2,0(sp)
    80002746:	6105                	addi	sp,sp,32
    80002748:	8082                	ret
    panic("brelse");
    8000274a:	00006517          	auipc	a0,0x6
    8000274e:	e1e50513          	addi	a0,a0,-482 # 80008568 <syscalls+0x128>
    80002752:	00003097          	auipc	ra,0x3
    80002756:	770080e7          	jalr	1904(ra) # 80005ec2 <panic>

000000008000275a <bpin>:

void
bpin(struct buf *b) {
    8000275a:	1101                	addi	sp,sp,-32
    8000275c:	ec06                	sd	ra,24(sp)
    8000275e:	e822                	sd	s0,16(sp)
    80002760:	e426                	sd	s1,8(sp)
    80002762:	1000                	addi	s0,sp,32
    80002764:	84aa                	mv	s1,a0
  acquire(&bcache.lock);
    80002766:	0000c517          	auipc	a0,0xc
    8000276a:	2a250513          	addi	a0,a0,674 # 8000ea08 <bcache>
    8000276e:	00004097          	auipc	ra,0x4
    80002772:	c9e080e7          	jalr	-866(ra) # 8000640c <acquire>
  b->refcnt++;
    80002776:	40bc                	lw	a5,64(s1)
    80002778:	2785                	addiw	a5,a5,1
    8000277a:	c0bc                	sw	a5,64(s1)
  release(&bcache.lock);
    8000277c:	0000c517          	auipc	a0,0xc
    80002780:	28c50513          	addi	a0,a0,652 # 8000ea08 <bcache>
    80002784:	00004097          	auipc	ra,0x4
    80002788:	d3c080e7          	jalr	-708(ra) # 800064c0 <release>
}
    8000278c:	60e2                	ld	ra,24(sp)
    8000278e:	6442                	ld	s0,16(sp)
    80002790:	64a2                	ld	s1,8(sp)
    80002792:	6105                	addi	sp,sp,32
    80002794:	8082                	ret

0000000080002796 <bunpin>:

void
bunpin(struct buf *b) {
    80002796:	1101                	addi	sp,sp,-32
    80002798:	ec06                	sd	ra,24(sp)
    8000279a:	e822                	sd	s0,16(sp)
    8000279c:	e426                	sd	s1,8(sp)
    8000279e:	1000                	addi	s0,sp,32
    800027a0:	84aa                	mv	s1,a0
  acquire(&bcache.lock);
    800027a2:	0000c517          	auipc	a0,0xc
    800027a6:	26650513          	addi	a0,a0,614 # 8000ea08 <bcache>
    800027aa:	00004097          	auipc	ra,0x4
    800027ae:	c62080e7          	jalr	-926(ra) # 8000640c <acquire>
  b->refcnt--;
    800027b2:	40bc                	lw	a5,64(s1)
    800027b4:	37fd                	addiw	a5,a5,-1
    800027b6:	c0bc                	sw	a5,64(s1)
  release(&bcache.lock);
    800027b8:	0000c517          	auipc	a0,0xc
    800027bc:	25050513          	addi	a0,a0,592 # 8000ea08 <bcache>
    800027c0:	00004097          	auipc	ra,0x4
    800027c4:	d00080e7          	jalr	-768(ra) # 800064c0 <release>
}
    800027c8:	60e2                	ld	ra,24(sp)
    800027ca:	6442                	ld	s0,16(sp)
    800027cc:	64a2                	ld	s1,8(sp)
    800027ce:	6105                	addi	sp,sp,32
    800027d0:	8082                	ret

00000000800027d2 <bfree>:
}

// Free a disk block.
static void
bfree(int dev, uint b)
{
    800027d2:	1101                	addi	sp,sp,-32
    800027d4:	ec06                	sd	ra,24(sp)
    800027d6:	e822                	sd	s0,16(sp)
    800027d8:	e426                	sd	s1,8(sp)
    800027da:	e04a                	sd	s2,0(sp)
    800027dc:	1000                	addi	s0,sp,32
    800027de:	84ae                	mv	s1,a1
  struct buf *bp;
  int bi, m;

  bp = bread(dev, BBLOCK(b, sb));
    800027e0:	00d5d59b          	srliw	a1,a1,0xd
    800027e4:	00015797          	auipc	a5,0x15
    800027e8:	9007a783          	lw	a5,-1792(a5) # 800170e4 <sb+0x1c>
    800027ec:	9dbd                	addw	a1,a1,a5
    800027ee:	00000097          	auipc	ra,0x0
    800027f2:	d9e080e7          	jalr	-610(ra) # 8000258c <bread>
  bi = b % BPB;
  m = 1 << (bi % 8);
    800027f6:	0074f713          	andi	a4,s1,7
    800027fa:	4785                	li	a5,1
    800027fc:	00e797bb          	sllw	a5,a5,a4
  if((bp->data[bi/8] & m) == 0)
    80002800:	14ce                	slli	s1,s1,0x33
    80002802:	90d9                	srli	s1,s1,0x36
    80002804:	00950733          	add	a4,a0,s1
    80002808:	05874703          	lbu	a4,88(a4)
    8000280c:	00e7f6b3          	and	a3,a5,a4
    80002810:	c69d                	beqz	a3,8000283e <bfree+0x6c>
    80002812:	892a                	mv	s2,a0
    panic("freeing free block");
  bp->data[bi/8] &= ~m;
    80002814:	94aa                	add	s1,s1,a0
    80002816:	fff7c793          	not	a5,a5
    8000281a:	8ff9                	and	a5,a5,a4
    8000281c:	04f48c23          	sb	a5,88(s1)
  log_write(bp);
    80002820:	00001097          	auipc	ra,0x1
    80002824:	120080e7          	jalr	288(ra) # 80003940 <log_write>
  brelse(bp);
    80002828:	854a                	mv	a0,s2
    8000282a:	00000097          	auipc	ra,0x0
    8000282e:	e92080e7          	jalr	-366(ra) # 800026bc <brelse>
}
    80002832:	60e2                	ld	ra,24(sp)
    80002834:	6442                	ld	s0,16(sp)
    80002836:	64a2                	ld	s1,8(sp)
    80002838:	6902                	ld	s2,0(sp)
    8000283a:	6105                	addi	sp,sp,32
    8000283c:	8082                	ret
    panic("freeing free block");
    8000283e:	00006517          	auipc	a0,0x6
    80002842:	d3250513          	addi	a0,a0,-718 # 80008570 <syscalls+0x130>
    80002846:	00003097          	auipc	ra,0x3
    8000284a:	67c080e7          	jalr	1660(ra) # 80005ec2 <panic>

000000008000284e <balloc>:
{
    8000284e:	711d                	addi	sp,sp,-96
    80002850:	ec86                	sd	ra,88(sp)
    80002852:	e8a2                	sd	s0,80(sp)
    80002854:	e4a6                	sd	s1,72(sp)
    80002856:	e0ca                	sd	s2,64(sp)
    80002858:	fc4e                	sd	s3,56(sp)
    8000285a:	f852                	sd	s4,48(sp)
    8000285c:	f456                	sd	s5,40(sp)
    8000285e:	f05a                	sd	s6,32(sp)
    80002860:	ec5e                	sd	s7,24(sp)
    80002862:	e862                	sd	s8,16(sp)
    80002864:	e466                	sd	s9,8(sp)
    80002866:	1080                	addi	s0,sp,96
  for(b = 0; b < sb.size; b += BPB){
    80002868:	00015797          	auipc	a5,0x15
    8000286c:	8647a783          	lw	a5,-1948(a5) # 800170cc <sb+0x4>
    80002870:	10078163          	beqz	a5,80002972 <balloc+0x124>
    80002874:	8baa                	mv	s7,a0
    80002876:	4a81                	li	s5,0
    bp = bread(dev, BBLOCK(b, sb));
    80002878:	00015b17          	auipc	s6,0x15
    8000287c:	850b0b13          	addi	s6,s6,-1968 # 800170c8 <sb>
    for(bi = 0; bi < BPB && b + bi < sb.size; bi++){
    80002880:	4c01                	li	s8,0
      m = 1 << (bi % 8);
    80002882:	4985                	li	s3,1
    for(bi = 0; bi < BPB && b + bi < sb.size; bi++){
    80002884:	6a09                	lui	s4,0x2
  for(b = 0; b < sb.size; b += BPB){
    80002886:	6c89                	lui	s9,0x2
    80002888:	a061                	j	80002910 <balloc+0xc2>
        bp->data[bi/8] |= m;  // Mark block in use.
    8000288a:	974a                	add	a4,a4,s2
    8000288c:	8fd5                	or	a5,a5,a3
    8000288e:	04f70c23          	sb	a5,88(a4)
        log_write(bp);
    80002892:	854a                	mv	a0,s2
    80002894:	00001097          	auipc	ra,0x1
    80002898:	0ac080e7          	jalr	172(ra) # 80003940 <log_write>
        brelse(bp);
    8000289c:	854a                	mv	a0,s2
    8000289e:	00000097          	auipc	ra,0x0
    800028a2:	e1e080e7          	jalr	-482(ra) # 800026bc <brelse>
  bp = bread(dev, bno);
    800028a6:	85a6                	mv	a1,s1
    800028a8:	855e                	mv	a0,s7
    800028aa:	00000097          	auipc	ra,0x0
    800028ae:	ce2080e7          	jalr	-798(ra) # 8000258c <bread>
    800028b2:	892a                	mv	s2,a0
  memset(bp->data, 0, BSIZE);
    800028b4:	40000613          	li	a2,1024
    800028b8:	4581                	li	a1,0
    800028ba:	05850513          	addi	a0,a0,88
    800028be:	ffffe097          	auipc	ra,0xffffe
    800028c2:	8ba080e7          	jalr	-1862(ra) # 80000178 <memset>
  log_write(bp);
    800028c6:	854a                	mv	a0,s2
    800028c8:	00001097          	auipc	ra,0x1
    800028cc:	078080e7          	jalr	120(ra) # 80003940 <log_write>
  brelse(bp);
    800028d0:	854a                	mv	a0,s2
    800028d2:	00000097          	auipc	ra,0x0
    800028d6:	dea080e7          	jalr	-534(ra) # 800026bc <brelse>
}
    800028da:	8526                	mv	a0,s1
    800028dc:	60e6                	ld	ra,88(sp)
    800028de:	6446                	ld	s0,80(sp)
    800028e0:	64a6                	ld	s1,72(sp)
    800028e2:	6906                	ld	s2,64(sp)
    800028e4:	79e2                	ld	s3,56(sp)
    800028e6:	7a42                	ld	s4,48(sp)
    800028e8:	7aa2                	ld	s5,40(sp)
    800028ea:	7b02                	ld	s6,32(sp)
    800028ec:	6be2                	ld	s7,24(sp)
    800028ee:	6c42                	ld	s8,16(sp)
    800028f0:	6ca2                	ld	s9,8(sp)
    800028f2:	6125                	addi	sp,sp,96
    800028f4:	8082                	ret
    brelse(bp);
    800028f6:	854a                	mv	a0,s2
    800028f8:	00000097          	auipc	ra,0x0
    800028fc:	dc4080e7          	jalr	-572(ra) # 800026bc <brelse>
  for(b = 0; b < sb.size; b += BPB){
    80002900:	015c87bb          	addw	a5,s9,s5
    80002904:	00078a9b          	sext.w	s5,a5
    80002908:	004b2703          	lw	a4,4(s6)
    8000290c:	06eaf363          	bgeu	s5,a4,80002972 <balloc+0x124>
    bp = bread(dev, BBLOCK(b, sb));
    80002910:	41fad79b          	sraiw	a5,s5,0x1f
    80002914:	0137d79b          	srliw	a5,a5,0x13
    80002918:	015787bb          	addw	a5,a5,s5
    8000291c:	40d7d79b          	sraiw	a5,a5,0xd
    80002920:	01cb2583          	lw	a1,28(s6)
    80002924:	9dbd                	addw	a1,a1,a5
    80002926:	855e                	mv	a0,s7
    80002928:	00000097          	auipc	ra,0x0
    8000292c:	c64080e7          	jalr	-924(ra) # 8000258c <bread>
    80002930:	892a                	mv	s2,a0
    for(bi = 0; bi < BPB && b + bi < sb.size; bi++){
    80002932:	004b2503          	lw	a0,4(s6)
    80002936:	000a849b          	sext.w	s1,s5
    8000293a:	8662                	mv	a2,s8
    8000293c:	faa4fde3          	bgeu	s1,a0,800028f6 <balloc+0xa8>
      m = 1 << (bi % 8);
    80002940:	41f6579b          	sraiw	a5,a2,0x1f
    80002944:	01d7d69b          	srliw	a3,a5,0x1d
    80002948:	00c6873b          	addw	a4,a3,a2
    8000294c:	00777793          	andi	a5,a4,7
    80002950:	9f95                	subw	a5,a5,a3
    80002952:	00f997bb          	sllw	a5,s3,a5
      if((bp->data[bi/8] & m) == 0){  // Is block free?
    80002956:	4037571b          	sraiw	a4,a4,0x3
    8000295a:	00e906b3          	add	a3,s2,a4
    8000295e:	0586c683          	lbu	a3,88(a3)
    80002962:	00d7f5b3          	and	a1,a5,a3
    80002966:	d195                	beqz	a1,8000288a <balloc+0x3c>
    for(bi = 0; bi < BPB && b + bi < sb.size; bi++){
    80002968:	2605                	addiw	a2,a2,1
    8000296a:	2485                	addiw	s1,s1,1
    8000296c:	fd4618e3          	bne	a2,s4,8000293c <balloc+0xee>
    80002970:	b759                	j	800028f6 <balloc+0xa8>
  printf("balloc: out of blocks\n");
    80002972:	00006517          	auipc	a0,0x6
    80002976:	c1650513          	addi	a0,a0,-1002 # 80008588 <syscalls+0x148>
    8000297a:	00003097          	auipc	ra,0x3
    8000297e:	592080e7          	jalr	1426(ra) # 80005f0c <printf>
  return 0;
    80002982:	4481                	li	s1,0
    80002984:	bf99                	j	800028da <balloc+0x8c>

0000000080002986 <bmap>:
// Return the disk block address of the nth block in inode ip.
// If there is no such block, bmap allocates one.
// returns 0 if out of disk space.
static uint
bmap(struct inode *ip, uint bn)
{
    80002986:	7179                	addi	sp,sp,-48
    80002988:	f406                	sd	ra,40(sp)
    8000298a:	f022                	sd	s0,32(sp)
    8000298c:	ec26                	sd	s1,24(sp)
    8000298e:	e84a                	sd	s2,16(sp)
    80002990:	e44e                	sd	s3,8(sp)
    80002992:	e052                	sd	s4,0(sp)
    80002994:	1800                	addi	s0,sp,48
    80002996:	89aa                	mv	s3,a0
  uint addr, *a;
  struct buf *bp;

  if(bn < NDIRECT){
    80002998:	47ad                	li	a5,11
    8000299a:	02b7e763          	bltu	a5,a1,800029c8 <bmap+0x42>
    if((addr = ip->addrs[bn]) == 0){
    8000299e:	02059493          	slli	s1,a1,0x20
    800029a2:	9081                	srli	s1,s1,0x20
    800029a4:	048a                	slli	s1,s1,0x2
    800029a6:	94aa                	add	s1,s1,a0
    800029a8:	0504a903          	lw	s2,80(s1)
    800029ac:	06091e63          	bnez	s2,80002a28 <bmap+0xa2>
      addr = balloc(ip->dev);
    800029b0:	4108                	lw	a0,0(a0)
    800029b2:	00000097          	auipc	ra,0x0
    800029b6:	e9c080e7          	jalr	-356(ra) # 8000284e <balloc>
    800029ba:	0005091b          	sext.w	s2,a0
      if(addr == 0)
    800029be:	06090563          	beqz	s2,80002a28 <bmap+0xa2>
        return 0;
      ip->addrs[bn] = addr;
    800029c2:	0524a823          	sw	s2,80(s1)
    800029c6:	a08d                	j	80002a28 <bmap+0xa2>
    }
    return addr;
  }
  bn -= NDIRECT;
    800029c8:	ff45849b          	addiw	s1,a1,-12
    800029cc:	0004871b          	sext.w	a4,s1

  if(bn < NINDIRECT){
    800029d0:	0ff00793          	li	a5,255
    800029d4:	08e7e563          	bltu	a5,a4,80002a5e <bmap+0xd8>
    // Load indirect block, allocating if necessary.
    if((addr = ip->addrs[NDIRECT]) == 0){
    800029d8:	08052903          	lw	s2,128(a0)
    800029dc:	00091d63          	bnez	s2,800029f6 <bmap+0x70>
      addr = balloc(ip->dev);
    800029e0:	4108                	lw	a0,0(a0)
    800029e2:	00000097          	auipc	ra,0x0
    800029e6:	e6c080e7          	jalr	-404(ra) # 8000284e <balloc>
    800029ea:	0005091b          	sext.w	s2,a0
      if(addr == 0)
    800029ee:	02090d63          	beqz	s2,80002a28 <bmap+0xa2>
        return 0;
      ip->addrs[NDIRECT] = addr;
    800029f2:	0929a023          	sw	s2,128(s3)
    }
    bp = bread(ip->dev, addr);
    800029f6:	85ca                	mv	a1,s2
    800029f8:	0009a503          	lw	a0,0(s3)
    800029fc:	00000097          	auipc	ra,0x0
    80002a00:	b90080e7          	jalr	-1136(ra) # 8000258c <bread>
    80002a04:	8a2a                	mv	s4,a0
    a = (uint*)bp->data;
    80002a06:	05850793          	addi	a5,a0,88
    if((addr = a[bn]) == 0){
    80002a0a:	02049593          	slli	a1,s1,0x20
    80002a0e:	9181                	srli	a1,a1,0x20
    80002a10:	058a                	slli	a1,a1,0x2
    80002a12:	00b784b3          	add	s1,a5,a1
    80002a16:	0004a903          	lw	s2,0(s1)
    80002a1a:	02090063          	beqz	s2,80002a3a <bmap+0xb4>
      if(addr){
        a[bn] = addr;
        log_write(bp);
      }
    }
    brelse(bp);
    80002a1e:	8552                	mv	a0,s4
    80002a20:	00000097          	auipc	ra,0x0
    80002a24:	c9c080e7          	jalr	-868(ra) # 800026bc <brelse>
    return addr;
  }

  panic("bmap: out of range");
}
    80002a28:	854a                	mv	a0,s2
    80002a2a:	70a2                	ld	ra,40(sp)
    80002a2c:	7402                	ld	s0,32(sp)
    80002a2e:	64e2                	ld	s1,24(sp)
    80002a30:	6942                	ld	s2,16(sp)
    80002a32:	69a2                	ld	s3,8(sp)
    80002a34:	6a02                	ld	s4,0(sp)
    80002a36:	6145                	addi	sp,sp,48
    80002a38:	8082                	ret
      addr = balloc(ip->dev);
    80002a3a:	0009a503          	lw	a0,0(s3)
    80002a3e:	00000097          	auipc	ra,0x0
    80002a42:	e10080e7          	jalr	-496(ra) # 8000284e <balloc>
    80002a46:	0005091b          	sext.w	s2,a0
      if(addr){
    80002a4a:	fc090ae3          	beqz	s2,80002a1e <bmap+0x98>
        a[bn] = addr;
    80002a4e:	0124a023          	sw	s2,0(s1)
        log_write(bp);
    80002a52:	8552                	mv	a0,s4
    80002a54:	00001097          	auipc	ra,0x1
    80002a58:	eec080e7          	jalr	-276(ra) # 80003940 <log_write>
    80002a5c:	b7c9                	j	80002a1e <bmap+0x98>
  panic("bmap: out of range");
    80002a5e:	00006517          	auipc	a0,0x6
    80002a62:	b4250513          	addi	a0,a0,-1214 # 800085a0 <syscalls+0x160>
    80002a66:	00003097          	auipc	ra,0x3
    80002a6a:	45c080e7          	jalr	1116(ra) # 80005ec2 <panic>

0000000080002a6e <iget>:
{
    80002a6e:	7179                	addi	sp,sp,-48
    80002a70:	f406                	sd	ra,40(sp)
    80002a72:	f022                	sd	s0,32(sp)
    80002a74:	ec26                	sd	s1,24(sp)
    80002a76:	e84a                	sd	s2,16(sp)
    80002a78:	e44e                	sd	s3,8(sp)
    80002a7a:	e052                	sd	s4,0(sp)
    80002a7c:	1800                	addi	s0,sp,48
    80002a7e:	89aa                	mv	s3,a0
    80002a80:	8a2e                	mv	s4,a1
  acquire(&itable.lock);
    80002a82:	00014517          	auipc	a0,0x14
    80002a86:	66650513          	addi	a0,a0,1638 # 800170e8 <itable>
    80002a8a:	00004097          	auipc	ra,0x4
    80002a8e:	982080e7          	jalr	-1662(ra) # 8000640c <acquire>
  empty = 0;
    80002a92:	4901                	li	s2,0
  for(ip = &itable.inode[0]; ip < &itable.inode[NINODE]; ip++){
    80002a94:	00014497          	auipc	s1,0x14
    80002a98:	66c48493          	addi	s1,s1,1644 # 80017100 <itable+0x18>
    80002a9c:	00016697          	auipc	a3,0x16
    80002aa0:	0f468693          	addi	a3,a3,244 # 80018b90 <log>
    80002aa4:	a039                	j	80002ab2 <iget+0x44>
    if(empty == 0 && ip->ref == 0)    // Remember empty slot.
    80002aa6:	02090b63          	beqz	s2,80002adc <iget+0x6e>
  for(ip = &itable.inode[0]; ip < &itable.inode[NINODE]; ip++){
    80002aaa:	08848493          	addi	s1,s1,136
    80002aae:	02d48a63          	beq	s1,a3,80002ae2 <iget+0x74>
    if(ip->ref > 0 && ip->dev == dev && ip->inum == inum){
    80002ab2:	449c                	lw	a5,8(s1)
    80002ab4:	fef059e3          	blez	a5,80002aa6 <iget+0x38>
    80002ab8:	4098                	lw	a4,0(s1)
    80002aba:	ff3716e3          	bne	a4,s3,80002aa6 <iget+0x38>
    80002abe:	40d8                	lw	a4,4(s1)
    80002ac0:	ff4713e3          	bne	a4,s4,80002aa6 <iget+0x38>
      ip->ref++;
    80002ac4:	2785                	addiw	a5,a5,1
    80002ac6:	c49c                	sw	a5,8(s1)
      release(&itable.lock);
    80002ac8:	00014517          	auipc	a0,0x14
    80002acc:	62050513          	addi	a0,a0,1568 # 800170e8 <itable>
    80002ad0:	00004097          	auipc	ra,0x4
    80002ad4:	9f0080e7          	jalr	-1552(ra) # 800064c0 <release>
      return ip;
    80002ad8:	8926                	mv	s2,s1
    80002ada:	a03d                	j	80002b08 <iget+0x9a>
    if(empty == 0 && ip->ref == 0)    // Remember empty slot.
    80002adc:	f7f9                	bnez	a5,80002aaa <iget+0x3c>
    80002ade:	8926                	mv	s2,s1
    80002ae0:	b7e9                	j	80002aaa <iget+0x3c>
  if(empty == 0)
    80002ae2:	02090c63          	beqz	s2,80002b1a <iget+0xac>
  ip->dev = dev;
    80002ae6:	01392023          	sw	s3,0(s2)
  ip->inum = inum;
    80002aea:	01492223          	sw	s4,4(s2)
  ip->ref = 1;
    80002aee:	4785                	li	a5,1
    80002af0:	00f92423          	sw	a5,8(s2)
  ip->valid = 0;
    80002af4:	04092023          	sw	zero,64(s2)
  release(&itable.lock);
    80002af8:	00014517          	auipc	a0,0x14
    80002afc:	5f050513          	addi	a0,a0,1520 # 800170e8 <itable>
    80002b00:	00004097          	auipc	ra,0x4
    80002b04:	9c0080e7          	jalr	-1600(ra) # 800064c0 <release>
}
    80002b08:	854a                	mv	a0,s2
    80002b0a:	70a2                	ld	ra,40(sp)
    80002b0c:	7402                	ld	s0,32(sp)
    80002b0e:	64e2                	ld	s1,24(sp)
    80002b10:	6942                	ld	s2,16(sp)
    80002b12:	69a2                	ld	s3,8(sp)
    80002b14:	6a02                	ld	s4,0(sp)
    80002b16:	6145                	addi	sp,sp,48
    80002b18:	8082                	ret
    panic("iget: no inodes");
    80002b1a:	00006517          	auipc	a0,0x6
    80002b1e:	a9e50513          	addi	a0,a0,-1378 # 800085b8 <syscalls+0x178>
    80002b22:	00003097          	auipc	ra,0x3
    80002b26:	3a0080e7          	jalr	928(ra) # 80005ec2 <panic>

0000000080002b2a <fsinit>:
fsinit(int dev) {
    80002b2a:	7179                	addi	sp,sp,-48
    80002b2c:	f406                	sd	ra,40(sp)
    80002b2e:	f022                	sd	s0,32(sp)
    80002b30:	ec26                	sd	s1,24(sp)
    80002b32:	e84a                	sd	s2,16(sp)
    80002b34:	e44e                	sd	s3,8(sp)
    80002b36:	1800                	addi	s0,sp,48
    80002b38:	892a                	mv	s2,a0
  bp = bread(dev, 1);
    80002b3a:	4585                	li	a1,1
    80002b3c:	00000097          	auipc	ra,0x0
    80002b40:	a50080e7          	jalr	-1456(ra) # 8000258c <bread>
    80002b44:	84aa                	mv	s1,a0
  memmove(sb, bp->data, sizeof(*sb));
    80002b46:	00014997          	auipc	s3,0x14
    80002b4a:	58298993          	addi	s3,s3,1410 # 800170c8 <sb>
    80002b4e:	02000613          	li	a2,32
    80002b52:	05850593          	addi	a1,a0,88
    80002b56:	854e                	mv	a0,s3
    80002b58:	ffffd097          	auipc	ra,0xffffd
    80002b5c:	680080e7          	jalr	1664(ra) # 800001d8 <memmove>
  brelse(bp);
    80002b60:	8526                	mv	a0,s1
    80002b62:	00000097          	auipc	ra,0x0
    80002b66:	b5a080e7          	jalr	-1190(ra) # 800026bc <brelse>
  if(sb.magic != FSMAGIC)
    80002b6a:	0009a703          	lw	a4,0(s3)
    80002b6e:	102037b7          	lui	a5,0x10203
    80002b72:	04078793          	addi	a5,a5,64 # 10203040 <_entry-0x6fdfcfc0>
    80002b76:	02f71263          	bne	a4,a5,80002b9a <fsinit+0x70>
  initlog(dev, &sb);
    80002b7a:	00014597          	auipc	a1,0x14
    80002b7e:	54e58593          	addi	a1,a1,1358 # 800170c8 <sb>
    80002b82:	854a                	mv	a0,s2
    80002b84:	00001097          	auipc	ra,0x1
    80002b88:	b40080e7          	jalr	-1216(ra) # 800036c4 <initlog>
}
    80002b8c:	70a2                	ld	ra,40(sp)
    80002b8e:	7402                	ld	s0,32(sp)
    80002b90:	64e2                	ld	s1,24(sp)
    80002b92:	6942                	ld	s2,16(sp)
    80002b94:	69a2                	ld	s3,8(sp)
    80002b96:	6145                	addi	sp,sp,48
    80002b98:	8082                	ret
    panic("invalid file system");
    80002b9a:	00006517          	auipc	a0,0x6
    80002b9e:	a2e50513          	addi	a0,a0,-1490 # 800085c8 <syscalls+0x188>
    80002ba2:	00003097          	auipc	ra,0x3
    80002ba6:	320080e7          	jalr	800(ra) # 80005ec2 <panic>

0000000080002baa <iinit>:
{
    80002baa:	7179                	addi	sp,sp,-48
    80002bac:	f406                	sd	ra,40(sp)
    80002bae:	f022                	sd	s0,32(sp)
    80002bb0:	ec26                	sd	s1,24(sp)
    80002bb2:	e84a                	sd	s2,16(sp)
    80002bb4:	e44e                	sd	s3,8(sp)
    80002bb6:	1800                	addi	s0,sp,48
  initlock(&itable.lock, "itable");
    80002bb8:	00006597          	auipc	a1,0x6
    80002bbc:	a2858593          	addi	a1,a1,-1496 # 800085e0 <syscalls+0x1a0>
    80002bc0:	00014517          	auipc	a0,0x14
    80002bc4:	52850513          	addi	a0,a0,1320 # 800170e8 <itable>
    80002bc8:	00003097          	auipc	ra,0x3
    80002bcc:	7b4080e7          	jalr	1972(ra) # 8000637c <initlock>
  for(i = 0; i < NINODE; i++) {
    80002bd0:	00014497          	auipc	s1,0x14
    80002bd4:	54048493          	addi	s1,s1,1344 # 80017110 <itable+0x28>
    80002bd8:	00016997          	auipc	s3,0x16
    80002bdc:	fc898993          	addi	s3,s3,-56 # 80018ba0 <log+0x10>
    initsleeplock(&itable.inode[i].lock, "inode");
    80002be0:	00006917          	auipc	s2,0x6
    80002be4:	a0890913          	addi	s2,s2,-1528 # 800085e8 <syscalls+0x1a8>
    80002be8:	85ca                	mv	a1,s2
    80002bea:	8526                	mv	a0,s1
    80002bec:	00001097          	auipc	ra,0x1
    80002bf0:	e3a080e7          	jalr	-454(ra) # 80003a26 <initsleeplock>
  for(i = 0; i < NINODE; i++) {
    80002bf4:	08848493          	addi	s1,s1,136
    80002bf8:	ff3498e3          	bne	s1,s3,80002be8 <iinit+0x3e>
}
    80002bfc:	70a2                	ld	ra,40(sp)
    80002bfe:	7402                	ld	s0,32(sp)
    80002c00:	64e2                	ld	s1,24(sp)
    80002c02:	6942                	ld	s2,16(sp)
    80002c04:	69a2                	ld	s3,8(sp)
    80002c06:	6145                	addi	sp,sp,48
    80002c08:	8082                	ret

0000000080002c0a <ialloc>:
{
    80002c0a:	715d                	addi	sp,sp,-80
    80002c0c:	e486                	sd	ra,72(sp)
    80002c0e:	e0a2                	sd	s0,64(sp)
    80002c10:	fc26                	sd	s1,56(sp)
    80002c12:	f84a                	sd	s2,48(sp)
    80002c14:	f44e                	sd	s3,40(sp)
    80002c16:	f052                	sd	s4,32(sp)
    80002c18:	ec56                	sd	s5,24(sp)
    80002c1a:	e85a                	sd	s6,16(sp)
    80002c1c:	e45e                	sd	s7,8(sp)
    80002c1e:	0880                	addi	s0,sp,80
  for(inum = 1; inum < sb.ninodes; inum++){
    80002c20:	00014717          	auipc	a4,0x14
    80002c24:	4b472703          	lw	a4,1204(a4) # 800170d4 <sb+0xc>
    80002c28:	4785                	li	a5,1
